
My Libraries.elf:     file format elf32-littlearm

Sections:
Idx Name          Size      VMA       LMA       File off  Algn
  0 .isr_vector   00000198  08000000  08000000  00010000  2**0
                  CONTENTS, ALLOC, LOAD, READONLY, DATA
  1 .text         000016c0  08000198  08000198  00010198  2**2
                  CONTENTS, ALLOC, LOAD, READONLY, CODE
  2 .rodata       00000230  08001858  08001858  00011858  2**2
                  CONTENTS, ALLOC, LOAD, READONLY, DATA
  3 .init_array   00000004  08001a88  08001a88  00011a88  2**2
                  CONTENTS, ALLOC, LOAD, DATA
  4 .fini_array   00000004  08001a8c  08001a8c  00011a8c  2**2
                  CONTENTS, ALLOC, LOAD, DATA
  5 .data         00000004  20000000  08001a90  00020000  2**2
                  CONTENTS, ALLOC, LOAD, DATA
  6 .bss          000002dc  20000004  08001a94  00020004  2**2
                  ALLOC
  7 ._user_heap_stack 00000400  200002e0  08001a94  000202e0  2**0
                  ALLOC
  8 .ARM.attributes 0000002a  00000000  00000000  00020004  2**0
                  CONTENTS, READONLY
  9 .debug_info   00002ba2  00000000  00000000  0002002e  2**0
                  CONTENTS, READONLY, DEBUGGING, OCTETS
 10 .debug_abbrev 00000b88  00000000  00000000  00022bd0  2**0
                  CONTENTS, READONLY, DEBUGGING, OCTETS
 11 .debug_aranges 00000240  00000000  00000000  00023758  2**3
                  CONTENTS, READONLY, DEBUGGING, OCTETS
 12 .debug_ranges 000001a8  00000000  00000000  00023998  2**3
                  CONTENTS, READONLY, DEBUGGING, OCTETS
 13 .debug_macro  0000e589  00000000  00000000  00023b40  2**0
                  CONTENTS, READONLY, DEBUGGING, OCTETS
 14 .debug_line   000035f5  00000000  00000000  000320c9  2**0
                  CONTENTS, READONLY, DEBUGGING, OCTETS
 15 .debug_str    0005052e  00000000  00000000  000356be  2**0
                  CONTENTS, READONLY, DEBUGGING, OCTETS
 16 .comment      00000053  00000000  00000000  00085bec  2**0
                  CONTENTS, READONLY
 17 .debug_frame  00000644  00000000  00000000  00085c40  2**2
                  CONTENTS, READONLY, DEBUGGING, OCTETS

Disassembly of section .text:

08000198 <__do_global_dtors_aux>:
 8000198:	b510      	push	{r4, lr}
 800019a:	4c05      	ldr	r4, [pc, #20]	; (80001b0 <__do_global_dtors_aux+0x18>)
 800019c:	7823      	ldrb	r3, [r4, #0]
 800019e:	b933      	cbnz	r3, 80001ae <__do_global_dtors_aux+0x16>
 80001a0:	4b04      	ldr	r3, [pc, #16]	; (80001b4 <__do_global_dtors_aux+0x1c>)
 80001a2:	b113      	cbz	r3, 80001aa <__do_global_dtors_aux+0x12>
 80001a4:	4804      	ldr	r0, [pc, #16]	; (80001b8 <__do_global_dtors_aux+0x20>)
 80001a6:	f3af 8000 	nop.w
 80001aa:	2301      	movs	r3, #1
 80001ac:	7023      	strb	r3, [r4, #0]
 80001ae:	bd10      	pop	{r4, pc}
 80001b0:	20000004 	.word	0x20000004
 80001b4:	00000000 	.word	0x00000000
 80001b8:	08001840 	.word	0x08001840

080001bc <frame_dummy>:
 80001bc:	b508      	push	{r3, lr}
 80001be:	4b03      	ldr	r3, [pc, #12]	; (80001cc <frame_dummy+0x10>)
 80001c0:	b11b      	cbz	r3, 80001ca <frame_dummy+0xe>
 80001c2:	4903      	ldr	r1, [pc, #12]	; (80001d0 <frame_dummy+0x14>)
 80001c4:	4803      	ldr	r0, [pc, #12]	; (80001d4 <frame_dummy+0x18>)
 80001c6:	f3af 8000 	nop.w
 80001ca:	bd08      	pop	{r3, pc}
 80001cc:	00000000 	.word	0x00000000
 80001d0:	20000008 	.word	0x20000008
 80001d4:	08001840 	.word	0x08001840

080001d8 <SystemInit>:
  *         configuration.
  * @param  None
  * @retval None
  */
void SystemInit(void)
{
 80001d8:	b480      	push	{r7}
 80001da:	af00      	add	r7, sp, #0
  #if (__FPU_PRESENT == 1) && (__FPU_USED == 1)
    SCB->CPACR |= ((3UL << 10*2)|(3UL << 11*2));  /* set CP10 and CP11 Full Access */
  #endif
  /* Reset the RCC clock configuration to the default reset state ------------*/
  /* Set HSION bit */
  RCC->CR |= (uint32_t)0x00000001;
 80001dc:	4b12      	ldr	r3, [pc, #72]	; (8000228 <SystemInit+0x50>)
 80001de:	681b      	ldr	r3, [r3, #0]
 80001e0:	4a11      	ldr	r2, [pc, #68]	; (8000228 <SystemInit+0x50>)
 80001e2:	f043 0301 	orr.w	r3, r3, #1
 80001e6:	6013      	str	r3, [r2, #0]

  /* Reset CFGR register */
  RCC->CFGR = 0x00000000;
 80001e8:	4b0f      	ldr	r3, [pc, #60]	; (8000228 <SystemInit+0x50>)
 80001ea:	2200      	movs	r2, #0
 80001ec:	609a      	str	r2, [r3, #8]

  /* Reset HSEON, CSSON and PLLON bits */
  RCC->CR &= (uint32_t)0xFEF6FFFF;
 80001ee:	4b0e      	ldr	r3, [pc, #56]	; (8000228 <SystemInit+0x50>)
 80001f0:	681b      	ldr	r3, [r3, #0]
 80001f2:	4a0d      	ldr	r2, [pc, #52]	; (8000228 <SystemInit+0x50>)
 80001f4:	f023 7384 	bic.w	r3, r3, #17301504	; 0x1080000
 80001f8:	f423 3380 	bic.w	r3, r3, #65536	; 0x10000
 80001fc:	6013      	str	r3, [r2, #0]

  /* Reset PLLCFGR register */
  RCC->PLLCFGR = 0x24003010;
 80001fe:	4b0a      	ldr	r3, [pc, #40]	; (8000228 <SystemInit+0x50>)
 8000200:	4a0a      	ldr	r2, [pc, #40]	; (800022c <SystemInit+0x54>)
 8000202:	605a      	str	r2, [r3, #4]

  /* Reset HSEBYP bit */
  RCC->CR &= (uint32_t)0xFFFBFFFF;
 8000204:	4b08      	ldr	r3, [pc, #32]	; (8000228 <SystemInit+0x50>)
 8000206:	681b      	ldr	r3, [r3, #0]
 8000208:	4a07      	ldr	r2, [pc, #28]	; (8000228 <SystemInit+0x50>)
 800020a:	f423 2380 	bic.w	r3, r3, #262144	; 0x40000
 800020e:	6013      	str	r3, [r2, #0]

  /* Disable all interrupts */
  RCC->CIR = 0x00000000;
 8000210:	4b05      	ldr	r3, [pc, #20]	; (8000228 <SystemInit+0x50>)
 8000212:	2200      	movs	r2, #0
 8000214:	60da      	str	r2, [r3, #12]

  /* Configure the Vector Table location add offset address ------------------*/
#ifdef VECT_TAB_SRAM
  SCB->VTOR = SRAM_BASE | VECT_TAB_OFFSET; /* Vector Table Relocation in Internal SRAM */
#else
  SCB->VTOR = FLASH_BASE | VECT_TAB_OFFSET; /* Vector Table Relocation in Internal FLASH */
 8000216:	4b06      	ldr	r3, [pc, #24]	; (8000230 <SystemInit+0x58>)
 8000218:	f04f 6200 	mov.w	r2, #134217728	; 0x8000000
 800021c:	609a      	str	r2, [r3, #8]
#endif
}
 800021e:	bf00      	nop
 8000220:	46bd      	mov	sp, r7
 8000222:	bc80      	pop	{r7}
 8000224:	4770      	bx	lr
 8000226:	bf00      	nop
 8000228:	40023800 	.word	0x40023800
 800022c:	24003010 	.word	0x24003010
 8000230:	e000ed00 	.word	0xe000ed00

08000234 <SystemCoreClockUpdate>:
  *     
  * @param  None
  * @retval None
  */
void SystemCoreClockUpdate(void)
{
 8000234:	b480      	push	{r7}
 8000236:	b087      	sub	sp, #28
 8000238:	af00      	add	r7, sp, #0
  uint32_t tmp = 0, pllvco = 0, pllp = 2, pllsource = 0, pllm = 2;
 800023a:	2300      	movs	r3, #0
 800023c:	613b      	str	r3, [r7, #16]
 800023e:	2300      	movs	r3, #0
 8000240:	617b      	str	r3, [r7, #20]
 8000242:	2302      	movs	r3, #2
 8000244:	60fb      	str	r3, [r7, #12]
 8000246:	2300      	movs	r3, #0
 8000248:	60bb      	str	r3, [r7, #8]
 800024a:	2302      	movs	r3, #2
 800024c:	607b      	str	r3, [r7, #4]
  
  /* Get SYSCLK source -------------------------------------------------------*/
  tmp = RCC->CFGR & RCC_CFGR_SWS;
 800024e:	4b34      	ldr	r3, [pc, #208]	; (8000320 <SystemCoreClockUpdate+0xec>)
 8000250:	689b      	ldr	r3, [r3, #8]
 8000252:	f003 030c 	and.w	r3, r3, #12
 8000256:	613b      	str	r3, [r7, #16]

  switch (tmp)
 8000258:	693b      	ldr	r3, [r7, #16]
 800025a:	2b08      	cmp	r3, #8
 800025c:	d011      	beq.n	8000282 <SystemCoreClockUpdate+0x4e>
 800025e:	693b      	ldr	r3, [r7, #16]
 8000260:	2b08      	cmp	r3, #8
 8000262:	d844      	bhi.n	80002ee <SystemCoreClockUpdate+0xba>
 8000264:	693b      	ldr	r3, [r7, #16]
 8000266:	2b00      	cmp	r3, #0
 8000268:	d003      	beq.n	8000272 <SystemCoreClockUpdate+0x3e>
 800026a:	693b      	ldr	r3, [r7, #16]
 800026c:	2b04      	cmp	r3, #4
 800026e:	d004      	beq.n	800027a <SystemCoreClockUpdate+0x46>
 8000270:	e03d      	b.n	80002ee <SystemCoreClockUpdate+0xba>
  {
    case 0x00:  /* HSI used as system clock source */
      SystemCoreClock = HSI_VALUE;
 8000272:	4b2c      	ldr	r3, [pc, #176]	; (8000324 <SystemCoreClockUpdate+0xf0>)
 8000274:	4a2c      	ldr	r2, [pc, #176]	; (8000328 <SystemCoreClockUpdate+0xf4>)
 8000276:	601a      	str	r2, [r3, #0]
      break;
 8000278:	e03d      	b.n	80002f6 <SystemCoreClockUpdate+0xc2>
    case 0x04:  /* HSE used as system clock source */
      SystemCoreClock = HSE_VALUE;
 800027a:	4b2a      	ldr	r3, [pc, #168]	; (8000324 <SystemCoreClockUpdate+0xf0>)
 800027c:	4a2b      	ldr	r2, [pc, #172]	; (800032c <SystemCoreClockUpdate+0xf8>)
 800027e:	601a      	str	r2, [r3, #0]
      break;
 8000280:	e039      	b.n	80002f6 <SystemCoreClockUpdate+0xc2>
    case 0x08:  /* PLL used as system clock source */

      /* PLL_VCO = (HSE_VALUE or HSI_VALUE / PLL_M) * PLL_N
         SYSCLK = PLL_VCO / PLL_P
         */    
      pllsource = (RCC->PLLCFGR & RCC_PLLCFGR_PLLSRC) >> 22;
 8000282:	4b27      	ldr	r3, [pc, #156]	; (8000320 <SystemCoreClockUpdate+0xec>)
 8000284:	685b      	ldr	r3, [r3, #4]
 8000286:	0d9b      	lsrs	r3, r3, #22
 8000288:	f003 0301 	and.w	r3, r3, #1
 800028c:	60bb      	str	r3, [r7, #8]
      pllm = RCC->PLLCFGR & RCC_PLLCFGR_PLLM;
 800028e:	4b24      	ldr	r3, [pc, #144]	; (8000320 <SystemCoreClockUpdate+0xec>)
 8000290:	685b      	ldr	r3, [r3, #4]
 8000292:	f003 033f 	and.w	r3, r3, #63	; 0x3f
 8000296:	607b      	str	r3, [r7, #4]
      
      if (pllsource != 0)
 8000298:	68bb      	ldr	r3, [r7, #8]
 800029a:	2b00      	cmp	r3, #0
 800029c:	d00c      	beq.n	80002b8 <SystemCoreClockUpdate+0x84>
      {
        /* HSE used as PLL clock source */
        pllvco = (HSE_VALUE / pllm) * ((RCC->PLLCFGR & RCC_PLLCFGR_PLLN) >> 6);
 800029e:	4a23      	ldr	r2, [pc, #140]	; (800032c <SystemCoreClockUpdate+0xf8>)
 80002a0:	687b      	ldr	r3, [r7, #4]
 80002a2:	fbb2 f3f3 	udiv	r3, r2, r3
 80002a6:	4a1e      	ldr	r2, [pc, #120]	; (8000320 <SystemCoreClockUpdate+0xec>)
 80002a8:	6852      	ldr	r2, [r2, #4]
 80002aa:	0992      	lsrs	r2, r2, #6
 80002ac:	f3c2 0208 	ubfx	r2, r2, #0, #9
 80002b0:	fb02 f303 	mul.w	r3, r2, r3
 80002b4:	617b      	str	r3, [r7, #20]
 80002b6:	e00b      	b.n	80002d0 <SystemCoreClockUpdate+0x9c>
      }
      else
      {
        /* HSI used as PLL clock source */
        pllvco = (HSI_VALUE / pllm) * ((RCC->PLLCFGR & RCC_PLLCFGR_PLLN) >> 6);
 80002b8:	4a1b      	ldr	r2, [pc, #108]	; (8000328 <SystemCoreClockUpdate+0xf4>)
 80002ba:	687b      	ldr	r3, [r7, #4]
 80002bc:	fbb2 f3f3 	udiv	r3, r2, r3
 80002c0:	4a17      	ldr	r2, [pc, #92]	; (8000320 <SystemCoreClockUpdate+0xec>)
 80002c2:	6852      	ldr	r2, [r2, #4]
 80002c4:	0992      	lsrs	r2, r2, #6
 80002c6:	f3c2 0208 	ubfx	r2, r2, #0, #9
 80002ca:	fb02 f303 	mul.w	r3, r2, r3
 80002ce:	617b      	str	r3, [r7, #20]
      }

      pllp = (((RCC->PLLCFGR & RCC_PLLCFGR_PLLP) >>16) + 1 ) *2;
 80002d0:	4b13      	ldr	r3, [pc, #76]	; (8000320 <SystemCoreClockUpdate+0xec>)
 80002d2:	685b      	ldr	r3, [r3, #4]
 80002d4:	0c1b      	lsrs	r3, r3, #16
 80002d6:	f003 0303 	and.w	r3, r3, #3
 80002da:	3301      	adds	r3, #1
 80002dc:	005b      	lsls	r3, r3, #1
 80002de:	60fb      	str	r3, [r7, #12]
      SystemCoreClock = pllvco/pllp;
 80002e0:	697a      	ldr	r2, [r7, #20]
 80002e2:	68fb      	ldr	r3, [r7, #12]
 80002e4:	fbb2 f3f3 	udiv	r3, r2, r3
 80002e8:	4a0e      	ldr	r2, [pc, #56]	; (8000324 <SystemCoreClockUpdate+0xf0>)
 80002ea:	6013      	str	r3, [r2, #0]
      break;
 80002ec:	e003      	b.n	80002f6 <SystemCoreClockUpdate+0xc2>
    default:
      SystemCoreClock = HSI_VALUE;
 80002ee:	4b0d      	ldr	r3, [pc, #52]	; (8000324 <SystemCoreClockUpdate+0xf0>)
 80002f0:	4a0d      	ldr	r2, [pc, #52]	; (8000328 <SystemCoreClockUpdate+0xf4>)
 80002f2:	601a      	str	r2, [r3, #0]
      break;
 80002f4:	bf00      	nop
  }
  /* Compute HCLK frequency --------------------------------------------------*/
  /* Get HCLK prescaler */
  tmp = AHBPrescTable[((RCC->CFGR & RCC_CFGR_HPRE) >> 4)];
 80002f6:	4b0a      	ldr	r3, [pc, #40]	; (8000320 <SystemCoreClockUpdate+0xec>)
 80002f8:	689b      	ldr	r3, [r3, #8]
 80002fa:	091b      	lsrs	r3, r3, #4
 80002fc:	f003 030f 	and.w	r3, r3, #15
 8000300:	4a0b      	ldr	r2, [pc, #44]	; (8000330 <SystemCoreClockUpdate+0xfc>)
 8000302:	5cd3      	ldrb	r3, [r2, r3]
 8000304:	613b      	str	r3, [r7, #16]
  /* HCLK frequency */
  SystemCoreClock >>= tmp;
 8000306:	4b07      	ldr	r3, [pc, #28]	; (8000324 <SystemCoreClockUpdate+0xf0>)
 8000308:	681a      	ldr	r2, [r3, #0]
 800030a:	693b      	ldr	r3, [r7, #16]
 800030c:	fa22 f303 	lsr.w	r3, r2, r3
 8000310:	4a04      	ldr	r2, [pc, #16]	; (8000324 <SystemCoreClockUpdate+0xf0>)
 8000312:	6013      	str	r3, [r2, #0]
}
 8000314:	bf00      	nop
 8000316:	371c      	adds	r7, #28
 8000318:	46bd      	mov	sp, r7
 800031a:	bc80      	pop	{r7}
 800031c:	4770      	bx	lr
 800031e:	bf00      	nop
 8000320:	40023800 	.word	0x40023800
 8000324:	20000000 	.word	0x20000000
 8000328:	00f42400 	.word	0x00f42400
 800032c:	017d7840 	.word	0x017d7840
 8000330:	08001858 	.word	0x08001858

08000334 <CRC16>:

/*************************	 Code	*************************/



unsigned short CRC16 (unsigned char *puchMsg, unsigned short usDataLen ){
 8000334:	b480      	push	{r7}
 8000336:	b085      	sub	sp, #20
 8000338:	af00      	add	r7, sp, #0
 800033a:	6078      	str	r0, [r7, #4]
 800033c:	460b      	mov	r3, r1
 800033e:	807b      	strh	r3, [r7, #2]

unsigned char uchCRCHi = 0xFF ; 			/* high byte of CRC initialized */
 8000340:	23ff      	movs	r3, #255	; 0xff
 8000342:	73fb      	strb	r3, [r7, #15]
unsigned char uchCRCLo = 0xFF ; 			/* low byte of CRC initialized */
 8000344:	23ff      	movs	r3, #255	; 0xff
 8000346:	73bb      	strb	r3, [r7, #14]
unsigned uIndex ; 							/* will index into CRC lookup table */
while (usDataLen--){ 						/* pass through message buffer */
 8000348:	e013      	b.n	8000372 <CRC16+0x3e>
uIndex = uchCRCLo ^ *puchMsg++; 			/* calculate the CRC */
 800034a:	687b      	ldr	r3, [r7, #4]
 800034c:	1c5a      	adds	r2, r3, #1
 800034e:	607a      	str	r2, [r7, #4]
 8000350:	781a      	ldrb	r2, [r3, #0]
 8000352:	7bbb      	ldrb	r3, [r7, #14]
 8000354:	4053      	eors	r3, r2
 8000356:	b2db      	uxtb	r3, r3
 8000358:	60bb      	str	r3, [r7, #8]
uchCRCLo = uchCRCHi ^ auchCRCHi[uIndex];
 800035a:	4a0f      	ldr	r2, [pc, #60]	; (8000398 <CRC16+0x64>)
 800035c:	68bb      	ldr	r3, [r7, #8]
 800035e:	4413      	add	r3, r2
 8000360:	781a      	ldrb	r2, [r3, #0]
 8000362:	7bfb      	ldrb	r3, [r7, #15]
 8000364:	4053      	eors	r3, r2
 8000366:	73bb      	strb	r3, [r7, #14]
uchCRCHi = auchCRCLo[uIndex];
 8000368:	4a0c      	ldr	r2, [pc, #48]	; (800039c <CRC16+0x68>)
 800036a:	68bb      	ldr	r3, [r7, #8]
 800036c:	4413      	add	r3, r2
 800036e:	781b      	ldrb	r3, [r3, #0]
 8000370:	73fb      	strb	r3, [r7, #15]
while (usDataLen--){ 						/* pass through message buffer */
 8000372:	887b      	ldrh	r3, [r7, #2]
 8000374:	1e5a      	subs	r2, r3, #1
 8000376:	807a      	strh	r2, [r7, #2]
 8000378:	2b00      	cmp	r3, #0
 800037a:	d1e6      	bne.n	800034a <CRC16+0x16>
}
return (uchCRCHi << 8 | uchCRCLo);
 800037c:	7bfb      	ldrb	r3, [r7, #15]
 800037e:	021b      	lsls	r3, r3, #8
 8000380:	b21a      	sxth	r2, r3
 8000382:	7bbb      	ldrb	r3, [r7, #14]
 8000384:	b21b      	sxth	r3, r3
 8000386:	4313      	orrs	r3, r2
 8000388:	b21b      	sxth	r3, r3
 800038a:	b29b      	uxth	r3, r3
}
 800038c:	4618      	mov	r0, r3
 800038e:	3714      	adds	r7, #20
 8000390:	46bd      	mov	sp, r7
 8000392:	bc80      	pop	{r7}
 8000394:	4770      	bx	lr
 8000396:	bf00      	nop
 8000398:	08001868 	.word	0x08001868
 800039c:	08001968 	.word	0x08001968

080003a0 <InitI2C1>:
uint8_t _lcdStates;
uint8_t lcdEntry;

/*************************	 Code	*************************/

void InitI2C1 (void){
 80003a0:	b480      	push	{r7}
 80003a2:	af00      	add	r7, sp, #0

/* I2C1 GPIO Configuration */

	GPIOB->MODER &= ~GPIO_MODER_MODER6;
 80003a4:	4b5e      	ldr	r3, [pc, #376]	; (8000520 <InitI2C1+0x180>)
 80003a6:	681b      	ldr	r3, [r3, #0]
 80003a8:	4a5d      	ldr	r2, [pc, #372]	; (8000520 <InitI2C1+0x180>)
 80003aa:	f423 5340 	bic.w	r3, r3, #12288	; 0x3000
 80003ae:	6013      	str	r3, [r2, #0]
	GPIOB->MODER |= GPIO_MODER_MODER6_1;				// Configuring the I / O Direction Mode for the Alternate Function
 80003b0:	4b5b      	ldr	r3, [pc, #364]	; (8000520 <InitI2C1+0x180>)
 80003b2:	681b      	ldr	r3, [r3, #0]
 80003b4:	4a5a      	ldr	r2, [pc, #360]	; (8000520 <InitI2C1+0x180>)
 80003b6:	f443 5300 	orr.w	r3, r3, #8192	; 0x2000
 80003ba:	6013      	str	r3, [r2, #0]
	GPIOB->OTYPER |= GPIO_OTYPER_OT6;					// Configuring the output type of the open-drain
 80003bc:	4b58      	ldr	r3, [pc, #352]	; (8000520 <InitI2C1+0x180>)
 80003be:	685b      	ldr	r3, [r3, #4]
 80003c0:	4a57      	ldr	r2, [pc, #348]	; (8000520 <InitI2C1+0x180>)
 80003c2:	f043 0340 	orr.w	r3, r3, #64	; 0x40
 80003c6:	6053      	str	r3, [r2, #4]
	GPIOB->OSPEEDR &= ~GPIO_OSPEEDR_OSPEED6;
 80003c8:	4b55      	ldr	r3, [pc, #340]	; (8000520 <InitI2C1+0x180>)
 80003ca:	689b      	ldr	r3, [r3, #8]
 80003cc:	4a54      	ldr	r2, [pc, #336]	; (8000520 <InitI2C1+0x180>)
 80003ce:	f423 5340 	bic.w	r3, r3, #12288	; 0x3000
 80003d2:	6093      	str	r3, [r2, #8]
	GPIOB->OSPEEDR |= GPIO_OSPEEDR_OSPEED6_0;			// Configuring the output speed is low
 80003d4:	4b52      	ldr	r3, [pc, #328]	; (8000520 <InitI2C1+0x180>)
 80003d6:	689b      	ldr	r3, [r3, #8]
 80003d8:	4a51      	ldr	r2, [pc, #324]	; (8000520 <InitI2C1+0x180>)
 80003da:	f443 5380 	orr.w	r3, r3, #4096	; 0x1000
 80003de:	6093      	str	r3, [r2, #8]
	GPIOB->PUPDR &= ~GPIO_PUPDR_PUPD6;
 80003e0:	4b4f      	ldr	r3, [pc, #316]	; (8000520 <InitI2C1+0x180>)
 80003e2:	68db      	ldr	r3, [r3, #12]
 80003e4:	4a4e      	ldr	r2, [pc, #312]	; (8000520 <InitI2C1+0x180>)
 80003e6:	f423 5340 	bic.w	r3, r3, #12288	; 0x3000
 80003ea:	60d3      	str	r3, [r2, #12]
	GPIOB->PUPDR |= GPIO_PUPDR_PUPD6_0;					// Configuring the I / O pull-up
 80003ec:	4b4c      	ldr	r3, [pc, #304]	; (8000520 <InitI2C1+0x180>)
 80003ee:	68db      	ldr	r3, [r3, #12]
 80003f0:	4a4b      	ldr	r2, [pc, #300]	; (8000520 <InitI2C1+0x180>)
 80003f2:	f443 5380 	orr.w	r3, r3, #4096	; 0x1000
 80003f6:	60d3      	str	r3, [r2, #12]
	GPIOB->AFR[0] &= ~GPIO_AFRL_AFRL6;					// Enable AF4 (I2C1...3) on port PB6
 80003f8:	4b49      	ldr	r3, [pc, #292]	; (8000520 <InitI2C1+0x180>)
 80003fa:	6a1b      	ldr	r3, [r3, #32]
 80003fc:	4a48      	ldr	r2, [pc, #288]	; (8000520 <InitI2C1+0x180>)
 80003fe:	f023 6370 	bic.w	r3, r3, #251658240	; 0xf000000
 8000402:	6213      	str	r3, [r2, #32]
	GPIOB->AFR[0] |= GPIO_AFRL_AFRL6_2;
 8000404:	4b46      	ldr	r3, [pc, #280]	; (8000520 <InitI2C1+0x180>)
 8000406:	6a1b      	ldr	r3, [r3, #32]
 8000408:	4a45      	ldr	r2, [pc, #276]	; (8000520 <InitI2C1+0x180>)
 800040a:	f043 6380 	orr.w	r3, r3, #67108864	; 0x4000000
 800040e:	6213      	str	r3, [r2, #32]

	GPIOB->MODER &= ~GPIO_MODER_MODER7;
 8000410:	4b43      	ldr	r3, [pc, #268]	; (8000520 <InitI2C1+0x180>)
 8000412:	681b      	ldr	r3, [r3, #0]
 8000414:	4a42      	ldr	r2, [pc, #264]	; (8000520 <InitI2C1+0x180>)
 8000416:	f423 4340 	bic.w	r3, r3, #49152	; 0xc000
 800041a:	6013      	str	r3, [r2, #0]
	GPIOB->MODER |= GPIO_MODER_MODER7_1;				// Configuring the I / O Direction Mode for the Alternate Function
 800041c:	4b40      	ldr	r3, [pc, #256]	; (8000520 <InitI2C1+0x180>)
 800041e:	681b      	ldr	r3, [r3, #0]
 8000420:	4a3f      	ldr	r2, [pc, #252]	; (8000520 <InitI2C1+0x180>)
 8000422:	f443 4300 	orr.w	r3, r3, #32768	; 0x8000
 8000426:	6013      	str	r3, [r2, #0]
	GPIOB->OTYPER |= GPIO_OTYPER_OT7;					// Configuring the output type of the open-drain
 8000428:	4b3d      	ldr	r3, [pc, #244]	; (8000520 <InitI2C1+0x180>)
 800042a:	685b      	ldr	r3, [r3, #4]
 800042c:	4a3c      	ldr	r2, [pc, #240]	; (8000520 <InitI2C1+0x180>)
 800042e:	f043 0380 	orr.w	r3, r3, #128	; 0x80
 8000432:	6053      	str	r3, [r2, #4]
	GPIOB->OSPEEDR &= ~GPIO_OSPEEDR_OSPEED7;
 8000434:	4b3a      	ldr	r3, [pc, #232]	; (8000520 <InitI2C1+0x180>)
 8000436:	689b      	ldr	r3, [r3, #8]
 8000438:	4a39      	ldr	r2, [pc, #228]	; (8000520 <InitI2C1+0x180>)
 800043a:	f423 4340 	bic.w	r3, r3, #49152	; 0xc000
 800043e:	6093      	str	r3, [r2, #8]
	GPIOB->OSPEEDR |= GPIO_OSPEEDR_OSPEED7_0;			// Configuring the output speed is low
 8000440:	4b37      	ldr	r3, [pc, #220]	; (8000520 <InitI2C1+0x180>)
 8000442:	689b      	ldr	r3, [r3, #8]
 8000444:	4a36      	ldr	r2, [pc, #216]	; (8000520 <InitI2C1+0x180>)
 8000446:	f443 4380 	orr.w	r3, r3, #16384	; 0x4000
 800044a:	6093      	str	r3, [r2, #8]
	GPIOB->PUPDR &= ~GPIO_PUPDR_PUPD7;
 800044c:	4b34      	ldr	r3, [pc, #208]	; (8000520 <InitI2C1+0x180>)
 800044e:	68db      	ldr	r3, [r3, #12]
 8000450:	4a33      	ldr	r2, [pc, #204]	; (8000520 <InitI2C1+0x180>)
 8000452:	f423 4340 	bic.w	r3, r3, #49152	; 0xc000
 8000456:	60d3      	str	r3, [r2, #12]
	GPIOB->PUPDR |= GPIO_PUPDR_PUPD7_0;					// Configuring the I / O pull-up
 8000458:	4b31      	ldr	r3, [pc, #196]	; (8000520 <InitI2C1+0x180>)
 800045a:	68db      	ldr	r3, [r3, #12]
 800045c:	4a30      	ldr	r2, [pc, #192]	; (8000520 <InitI2C1+0x180>)
 800045e:	f443 4380 	orr.w	r3, r3, #16384	; 0x4000
 8000462:	60d3      	str	r3, [r2, #12]
	GPIOB->AFR[0] &= ~GPIO_AFRL_AFRL7;					// Enable AF4 (I2C1...3) on port PB6
 8000464:	4b2e      	ldr	r3, [pc, #184]	; (8000520 <InitI2C1+0x180>)
 8000466:	6a1b      	ldr	r3, [r3, #32]
 8000468:	4a2d      	ldr	r2, [pc, #180]	; (8000520 <InitI2C1+0x180>)
 800046a:	f023 4370 	bic.w	r3, r3, #4026531840	; 0xf0000000
 800046e:	6213      	str	r3, [r2, #32]
	GPIOB->AFR[0] |= GPIO_AFRL_AFRL7_2;
 8000470:	4b2b      	ldr	r3, [pc, #172]	; (8000520 <InitI2C1+0x180>)
 8000472:	6a1b      	ldr	r3, [r3, #32]
 8000474:	4a2a      	ldr	r2, [pc, #168]	; (8000520 <InitI2C1+0x180>)
 8000476:	f043 4380 	orr.w	r3, r3, #1073741824	; 0x40000000
 800047a:	6213      	str	r3, [r2, #32]

	RCC->APB1ENR |= RCC_APB1ENR_I2C1EN;					// Enable I2C1 clocking
 800047c:	4b29      	ldr	r3, [pc, #164]	; (8000524 <InitI2C1+0x184>)
 800047e:	6c1b      	ldr	r3, [r3, #64]	; 0x40
 8000480:	4a28      	ldr	r2, [pc, #160]	; (8000524 <InitI2C1+0x184>)
 8000482:	f443 1300 	orr.w	r3, r3, #2097152	; 0x200000
 8000486:	6413      	str	r3, [r2, #64]	; 0x40

	I2C1->OAR2 &= ~I2C_OAR2_ENDUAL;						// Disable Dual addressing mode
 8000488:	4b27      	ldr	r3, [pc, #156]	; (8000528 <InitI2C1+0x188>)
 800048a:	68db      	ldr	r3, [r3, #12]
 800048c:	4a26      	ldr	r2, [pc, #152]	; (8000528 <InitI2C1+0x188>)
 800048e:	f023 0301 	bic.w	r3, r3, #1
 8000492:	60d3      	str	r3, [r2, #12]

	I2C1->CR1 &= ~I2C_CR1_ENGC;							// Disable General call
 8000494:	4b24      	ldr	r3, [pc, #144]	; (8000528 <InitI2C1+0x188>)
 8000496:	681b      	ldr	r3, [r3, #0]
 8000498:	4a23      	ldr	r2, [pc, #140]	; (8000528 <InitI2C1+0x188>)
 800049a:	f023 0340 	bic.w	r3, r3, #64	; 0x40
 800049e:	6013      	str	r3, [r2, #0]

	I2C1->CR1 &= ~I2C_CR1_NOSTRETCH;					// Enable clock stretching
 80004a0:	4b21      	ldr	r3, [pc, #132]	; (8000528 <InitI2C1+0x188>)
 80004a2:	681b      	ldr	r3, [r3, #0]
 80004a4:	4a20      	ldr	r2, [pc, #128]	; (8000528 <InitI2C1+0x188>)
 80004a6:	f023 0380 	bic.w	r3, r3, #128	; 0x80
 80004aa:	6013      	str	r3, [r2, #0]

	I2C1->CR1 &= ~I2C_CR1_SMBUS;						// Enable I2C mode
 80004ac:	4b1e      	ldr	r3, [pc, #120]	; (8000528 <InitI2C1+0x188>)
 80004ae:	681b      	ldr	r3, [r3, #0]
 80004b0:	4a1d      	ldr	r2, [pc, #116]	; (8000528 <InitI2C1+0x188>)
 80004b2:	f023 0302 	bic.w	r3, r3, #2
 80004b6:	6013      	str	r3, [r2, #0]

	I2C1->CR2 &= ~I2C_CR2_FREQ;
 80004b8:	4b1b      	ldr	r3, [pc, #108]	; (8000528 <InitI2C1+0x188>)
 80004ba:	685b      	ldr	r3, [r3, #4]
 80004bc:	4a1a      	ldr	r2, [pc, #104]	; (8000528 <InitI2C1+0x188>)
 80004be:	f023 033f 	bic.w	r3, r3, #63	; 0x3f
 80004c2:	6053      	str	r3, [r2, #4]
	I2C1->CR2 |= 48;									// Set 48 MHz frequency
 80004c4:	4b18      	ldr	r3, [pc, #96]	; (8000528 <InitI2C1+0x188>)
 80004c6:	685b      	ldr	r3, [r3, #4]
 80004c8:	4a17      	ldr	r2, [pc, #92]	; (8000528 <InitI2C1+0x188>)
 80004ca:	f043 0330 	orr.w	r3, r3, #48	; 0x30
 80004ce:	6053      	str	r3, [r2, #4]

	I2C1->CCR &= ~I2C_CCR_FS;							// Sm mode I2C
 80004d0:	4b15      	ldr	r3, [pc, #84]	; (8000528 <InitI2C1+0x188>)
 80004d2:	69db      	ldr	r3, [r3, #28]
 80004d4:	4a14      	ldr	r2, [pc, #80]	; (8000528 <InitI2C1+0x188>)
 80004d6:	f423 4300 	bic.w	r3, r3, #32768	; 0x8000
 80004da:	61d3      	str	r3, [r2, #28]

	I2C1->CCR &= ~I2C_CCR_CCR;
 80004dc:	4b12      	ldr	r3, [pc, #72]	; (8000528 <InitI2C1+0x188>)
 80004de:	69db      	ldr	r3, [r3, #28]
 80004e0:	4a11      	ldr	r2, [pc, #68]	; (8000528 <InitI2C1+0x188>)
 80004e2:	f423 637f 	bic.w	r3, r3, #4080	; 0xff0
 80004e6:	f023 030f 	bic.w	r3, r3, #15
 80004ea:	61d3      	str	r3, [r2, #28]
	I2C1->CCR |= 240;
 80004ec:	4b0e      	ldr	r3, [pc, #56]	; (8000528 <InitI2C1+0x188>)
 80004ee:	69db      	ldr	r3, [r3, #28]
 80004f0:	4a0d      	ldr	r2, [pc, #52]	; (8000528 <InitI2C1+0x188>)
 80004f2:	f043 03f0 	orr.w	r3, r3, #240	; 0xf0
 80004f6:	61d3      	str	r3, [r2, #28]

	I2C1->TRISE = 3;
 80004f8:	4b0b      	ldr	r3, [pc, #44]	; (8000528 <InitI2C1+0x188>)
 80004fa:	2203      	movs	r2, #3
 80004fc:	621a      	str	r2, [r3, #32]

	I2C1->CR2 |= I2C_CR2_ITEVTEN;						// Разрешаем прерывания по событиям отравки и др. (Event interrupt enable)
 80004fe:	4b0a      	ldr	r3, [pc, #40]	; (8000528 <InitI2C1+0x188>)
 8000500:	685b      	ldr	r3, [r3, #4]
 8000502:	4a09      	ldr	r2, [pc, #36]	; (8000528 <InitI2C1+0x188>)
 8000504:	f443 7300 	orr.w	r3, r3, #512	; 0x200
 8000508:	6053      	str	r3, [r2, #4]

	I2C1->CR1 |= I2C_CR1_PE;							// I2C1 Enable
 800050a:	4b07      	ldr	r3, [pc, #28]	; (8000528 <InitI2C1+0x188>)
 800050c:	681b      	ldr	r3, [r3, #0]
 800050e:	4a06      	ldr	r2, [pc, #24]	; (8000528 <InitI2C1+0x188>)
 8000510:	f043 0301 	orr.w	r3, r3, #1
 8000514:	6013      	str	r3, [r2, #0]

}
 8000516:	bf00      	nop
 8000518:	46bd      	mov	sp, r7
 800051a:	bc80      	pop	{r7}
 800051c:	4770      	bx	lr
 800051e:	bf00      	nop
 8000520:	40020400 	.word	0x40020400
 8000524:	40023800 	.word	0x40023800
 8000528:	40005400 	.word	0x40005400

0800052c <InitI2C1FSM>:

void InitI2C1FSM (void){
 800052c:	b580      	push	{r7, lr}
 800052e:	b082      	sub	sp, #8
 8000530:	af00      	add	r7, sp, #0

	InitI2C1();
 8000532:	f7ff ff35 	bl	80003a0 <InitI2C1>

	i2cSendStates = 0;
 8000536:	4b0d      	ldr	r3, [pc, #52]	; (800056c <InitI2C1FSM+0x40>)
 8000538:	2200      	movs	r2, #0
 800053a:	701a      	strb	r2, [r3, #0]
	_i2cSendStates = 0;
 800053c:	4b0c      	ldr	r3, [pc, #48]	; (8000570 <InitI2C1FSM+0x44>)
 800053e:	2200      	movs	r2, #0
 8000540:	701a      	strb	r2, [r3, #0]
	I2C1NumberOfTransaction = 0;
 8000542:	4b0c      	ldr	r3, [pc, #48]	; (8000574 <InitI2C1FSM+0x48>)
 8000544:	2200      	movs	r2, #0
 8000546:	701a      	strb	r2, [r3, #0]

	for (uint8_t i = 0; i < I2C1DataBuferLenght; i++){
 8000548:	2300      	movs	r3, #0
 800054a:	71fb      	strb	r3, [r7, #7]
 800054c:	e006      	b.n	800055c <InitI2C1FSM+0x30>
		I2C1Data[i] = 0x00;
 800054e:	79fb      	ldrb	r3, [r7, #7]
 8000550:	4a09      	ldr	r2, [pc, #36]	; (8000578 <InitI2C1FSM+0x4c>)
 8000552:	2100      	movs	r1, #0
 8000554:	54d1      	strb	r1, [r2, r3]
	for (uint8_t i = 0; i < I2C1DataBuferLenght; i++){
 8000556:	79fb      	ldrb	r3, [r7, #7]
 8000558:	3301      	adds	r3, #1
 800055a:	71fb      	strb	r3, [r7, #7]
 800055c:	79fb      	ldrb	r3, [r7, #7]
 800055e:	2b63      	cmp	r3, #99	; 0x63
 8000560:	d9f5      	bls.n	800054e <InitI2C1FSM+0x22>
	}
}
 8000562:	bf00      	nop
 8000564:	bf00      	nop
 8000566:	3708      	adds	r7, #8
 8000568:	46bd      	mov	sp, r7
 800056a:	bd80      	pop	{r7, pc}
 800056c:	20000089 	.word	0x20000089
 8000570:	20000023 	.word	0x20000023
 8000574:	20000021 	.word	0x20000021
 8000578:	20000024 	.word	0x20000024

0800057c <ProcessI2CWriteFSM>:

void ProcessI2CWriteFSM (void){
 800057c:	b580      	push	{r7, lr}
 800057e:	af00      	add	r7, sp, #0

	if ( i2cSendStates != _i2cSendStates) i2cEntry = 1; else i2cEntry = 0;
 8000580:	4b34      	ldr	r3, [pc, #208]	; (8000654 <ProcessI2CWriteFSM+0xd8>)
 8000582:	781a      	ldrb	r2, [r3, #0]
 8000584:	4b34      	ldr	r3, [pc, #208]	; (8000658 <ProcessI2CWriteFSM+0xdc>)
 8000586:	781b      	ldrb	r3, [r3, #0]
 8000588:	429a      	cmp	r2, r3
 800058a:	d003      	beq.n	8000594 <ProcessI2CWriteFSM+0x18>
 800058c:	4b33      	ldr	r3, [pc, #204]	; (800065c <ProcessI2CWriteFSM+0xe0>)
 800058e:	2201      	movs	r2, #1
 8000590:	701a      	strb	r2, [r3, #0]
 8000592:	e002      	b.n	800059a <ProcessI2CWriteFSM+0x1e>
 8000594:	4b31      	ldr	r3, [pc, #196]	; (800065c <ProcessI2CWriteFSM+0xe0>)
 8000596:	2200      	movs	r2, #0
 8000598:	701a      	strb	r2, [r3, #0]

	_i2cSendStates = i2cSendStates;
 800059a:	4b2e      	ldr	r3, [pc, #184]	; (8000654 <ProcessI2CWriteFSM+0xd8>)
 800059c:	781a      	ldrb	r2, [r3, #0]
 800059e:	4b2e      	ldr	r3, [pc, #184]	; (8000658 <ProcessI2CWriteFSM+0xdc>)
 80005a0:	701a      	strb	r2, [r3, #0]

	switch (i2cSendStates){
 80005a2:	4b2c      	ldr	r3, [pc, #176]	; (8000654 <ProcessI2CWriteFSM+0xd8>)
 80005a4:	781b      	ldrb	r3, [r3, #0]
 80005a6:	2b04      	cmp	r3, #4
 80005a8:	d851      	bhi.n	800064e <ProcessI2CWriteFSM+0xd2>
 80005aa:	a201      	add	r2, pc, #4	; (adr r2, 80005b0 <ProcessI2CWriteFSM+0x34>)
 80005ac:	f852 f023 	ldr.w	pc, [r2, r3, lsl #2]
 80005b0:	080005c5 	.word	0x080005c5
 80005b4:	080005e1 	.word	0x080005e1
 80005b8:	0800060b 	.word	0x0800060b
 80005bc:	0800061b 	.word	0x0800061b
 80005c0:	08000637 	.word	0x08000637

	case 0:

		if (GetMessage(I2C1StartTransaction)){
 80005c4:	200a      	movs	r0, #10
 80005c6:	f000 fa87 	bl	8000ad8 <GetMessage>
 80005ca:	4603      	mov	r3, r0
 80005cc:	2b00      	cmp	r3, #0
 80005ce:	d039      	beq.n	8000644 <ProcessI2CWriteFSM+0xc8>
			if (I2C1SendBuferLenght != 0){
 80005d0:	4b23      	ldr	r3, [pc, #140]	; (8000660 <ProcessI2CWriteFSM+0xe4>)
 80005d2:	781b      	ldrb	r3, [r3, #0]
 80005d4:	2b00      	cmp	r3, #0
 80005d6:	d035      	beq.n	8000644 <ProcessI2CWriteFSM+0xc8>
				i2cSendStates = 1;
 80005d8:	4b1e      	ldr	r3, [pc, #120]	; (8000654 <ProcessI2CWriteFSM+0xd8>)
 80005da:	2201      	movs	r2, #1
 80005dc:	701a      	strb	r2, [r3, #0]
			}
		}
		break;
 80005de:	e031      	b.n	8000644 <ProcessI2CWriteFSM+0xc8>

	case 1:

		if (i2cEntry == 1){
 80005e0:	4b1e      	ldr	r3, [pc, #120]	; (800065c <ProcessI2CWriteFSM+0xe0>)
 80005e2:	781b      	ldrb	r3, [r3, #0]
 80005e4:	2b01      	cmp	r3, #1
 80005e6:	d105      	bne.n	80005f4 <ProcessI2CWriteFSM+0x78>
			I2C1->CR1 |= I2C_CR1_START;
 80005e8:	4b1e      	ldr	r3, [pc, #120]	; (8000664 <ProcessI2CWriteFSM+0xe8>)
 80005ea:	681b      	ldr	r3, [r3, #0]
 80005ec:	4a1d      	ldr	r2, [pc, #116]	; (8000664 <ProcessI2CWriteFSM+0xe8>)
 80005ee:	f443 7380 	orr.w	r3, r3, #256	; 0x100
 80005f2:	6013      	str	r3, [r2, #0]
		}

		if (GetGTimerVal(I2C1Timer) >= 1000){
 80005f4:	2001      	movs	r0, #1
 80005f6:	f001 f8c5 	bl	8001784 <GetGTimerVal>
 80005fa:	4603      	mov	r3, r0
 80005fc:	f5b3 7f7a 	cmp.w	r3, #1000	; 0x3e8
 8000600:	d322      	bcc.n	8000648 <ProcessI2CWriteFSM+0xcc>
			i2cSendStates = 4;
 8000602:	4b14      	ldr	r3, [pc, #80]	; (8000654 <ProcessI2CWriteFSM+0xd8>)
 8000604:	2204      	movs	r2, #4
 8000606:	701a      	strb	r2, [r3, #0]
		}
		break;
 8000608:	e01e      	b.n	8000648 <ProcessI2CWriteFSM+0xcc>

	case 2:
		if (i2cEntry == 1) StopGTimer(I2C1Timer);
 800060a:	4b14      	ldr	r3, [pc, #80]	; (800065c <ProcessI2CWriteFSM+0xe0>)
 800060c:	781b      	ldrb	r3, [r3, #0]
 800060e:	2b01      	cmp	r3, #1
 8000610:	d11c      	bne.n	800064c <ProcessI2CWriteFSM+0xd0>
 8000612:	2001      	movs	r0, #1
 8000614:	f001 f8a6 	bl	8001764 <StopGTimer>
		break;
 8000618:	e018      	b.n	800064c <ProcessI2CWriteFSM+0xd0>

	case 3:

		if (I2C1NumberOfTransaction == I2C1SendBuferLenght){
 800061a:	4b13      	ldr	r3, [pc, #76]	; (8000668 <ProcessI2CWriteFSM+0xec>)
 800061c:	781a      	ldrb	r2, [r3, #0]
 800061e:	4b10      	ldr	r3, [pc, #64]	; (8000660 <ProcessI2CWriteFSM+0xe4>)
 8000620:	781b      	ldrb	r3, [r3, #0]
 8000622:	429a      	cmp	r2, r3
 8000624:	d103      	bne.n	800062e <ProcessI2CWriteFSM+0xb2>
			i2cSendStates = 0;
 8000626:	4b0b      	ldr	r3, [pc, #44]	; (8000654 <ProcessI2CWriteFSM+0xd8>)
 8000628:	2200      	movs	r2, #0
 800062a:	701a      	strb	r2, [r3, #0]
		}
		else {
			i2cSendStates = 1;
		}
		break;
 800062c:	e00f      	b.n	800064e <ProcessI2CWriteFSM+0xd2>
			i2cSendStates = 1;
 800062e:	4b09      	ldr	r3, [pc, #36]	; (8000654 <ProcessI2CWriteFSM+0xd8>)
 8000630:	2201      	movs	r2, #1
 8000632:	701a      	strb	r2, [r3, #0]
		break;
 8000634:	e00b      	b.n	800064e <ProcessI2CWriteFSM+0xd2>

	case 4:
		GPIOC->BSRR |= GPIO_BSRR_BS15;
 8000636:	4b0d      	ldr	r3, [pc, #52]	; (800066c <ProcessI2CWriteFSM+0xf0>)
 8000638:	699b      	ldr	r3, [r3, #24]
 800063a:	4a0c      	ldr	r2, [pc, #48]	; (800066c <ProcessI2CWriteFSM+0xf0>)
 800063c:	f443 4300 	orr.w	r3, r3, #32768	; 0x8000
 8000640:	6193      	str	r3, [r2, #24]

		break;
 8000642:	e004      	b.n	800064e <ProcessI2CWriteFSM+0xd2>
		break;
 8000644:	bf00      	nop
 8000646:	e002      	b.n	800064e <ProcessI2CWriteFSM+0xd2>
		break;
 8000648:	bf00      	nop
 800064a:	e000      	b.n	800064e <ProcessI2CWriteFSM+0xd2>
		break;
 800064c:	bf00      	nop
	}

}
 800064e:	bf00      	nop
 8000650:	bd80      	pop	{r7, pc}
 8000652:	bf00      	nop
 8000654:	20000089 	.word	0x20000089
 8000658:	20000023 	.word	0x20000023
 800065c:	20000020 	.word	0x20000020
 8000660:	2000008b 	.word	0x2000008b
 8000664:	40005400 	.word	0x40005400
 8000668:	20000021 	.word	0x20000021
 800066c:	40020800 	.word	0x40020800

08000670 <I2C1_EV_IRQHandler>:



/*************************	 IRQ_Handler (Обработчики прерываний)	*************************/

void I2C1_EV_IRQHandler (void){
 8000670:	b580      	push	{r7, lr}
 8000672:	af00      	add	r7, sp, #0

	if (I2C1->SR1 & I2C_SR1_SB){
 8000674:	4b1c      	ldr	r3, [pc, #112]	; (80006e8 <I2C1_EV_IRQHandler+0x78>)
 8000676:	695b      	ldr	r3, [r3, #20]
 8000678:	f003 0301 	and.w	r3, r3, #1
 800067c:	2b00      	cmp	r3, #0
 800067e:	d007      	beq.n	8000690 <I2C1_EV_IRQHandler+0x20>
		(void) I2C1->SR1;
 8000680:	4b19      	ldr	r3, [pc, #100]	; (80006e8 <I2C1_EV_IRQHandler+0x78>)
 8000682:	695b      	ldr	r3, [r3, #20]
		StartGTimer(I2C1Timer);
 8000684:	2001      	movs	r0, #1
 8000686:	f001 f851 	bl	800172c <StartGTimer>
		I2C1->DR = AddrDevice;
 800068a:	4b17      	ldr	r3, [pc, #92]	; (80006e8 <I2C1_EV_IRQHandler+0x78>)
 800068c:	224e      	movs	r2, #78	; 0x4e
 800068e:	611a      	str	r2, [r3, #16]
	}

	if (I2C1->SR1 & I2C_SR1_ADDR){
 8000690:	4b15      	ldr	r3, [pc, #84]	; (80006e8 <I2C1_EV_IRQHandler+0x78>)
 8000692:	695b      	ldr	r3, [r3, #20]
 8000694:	f003 0302 	and.w	r3, r3, #2
 8000698:	2b00      	cmp	r3, #0
 800069a:	d00d      	beq.n	80006b8 <I2C1_EV_IRQHandler+0x48>
		(void) I2C1->SR1;
 800069c:	4b12      	ldr	r3, [pc, #72]	; (80006e8 <I2C1_EV_IRQHandler+0x78>)
 800069e:	695b      	ldr	r3, [r3, #20]
		(void) I2C1->SR2;
 80006a0:	4b11      	ldr	r3, [pc, #68]	; (80006e8 <I2C1_EV_IRQHandler+0x78>)
 80006a2:	699b      	ldr	r3, [r3, #24]
		i2cSendStates = 2;
 80006a4:	4b11      	ldr	r3, [pc, #68]	; (80006ec <I2C1_EV_IRQHandler+0x7c>)
 80006a6:	2202      	movs	r2, #2
 80006a8:	701a      	strb	r2, [r3, #0]
		I2C1->DR = I2C1Data[I2C1NumberOfTransaction];
 80006aa:	4b11      	ldr	r3, [pc, #68]	; (80006f0 <I2C1_EV_IRQHandler+0x80>)
 80006ac:	781b      	ldrb	r3, [r3, #0]
 80006ae:	461a      	mov	r2, r3
 80006b0:	4b10      	ldr	r3, [pc, #64]	; (80006f4 <I2C1_EV_IRQHandler+0x84>)
 80006b2:	5c9a      	ldrb	r2, [r3, r2]
 80006b4:	4b0c      	ldr	r3, [pc, #48]	; (80006e8 <I2C1_EV_IRQHandler+0x78>)
 80006b6:	611a      	str	r2, [r3, #16]
	}

	if (I2C1->SR1 & I2C_SR1_BTF){
 80006b8:	4b0b      	ldr	r3, [pc, #44]	; (80006e8 <I2C1_EV_IRQHandler+0x78>)
 80006ba:	695b      	ldr	r3, [r3, #20]
 80006bc:	f003 0304 	and.w	r3, r3, #4
 80006c0:	2b00      	cmp	r3, #0
 80006c2:	d00e      	beq.n	80006e2 <I2C1_EV_IRQHandler+0x72>
		I2C1->CR1 |= I2C_CR1_STOP;
 80006c4:	4b08      	ldr	r3, [pc, #32]	; (80006e8 <I2C1_EV_IRQHandler+0x78>)
 80006c6:	681b      	ldr	r3, [r3, #0]
 80006c8:	4a07      	ldr	r2, [pc, #28]	; (80006e8 <I2C1_EV_IRQHandler+0x78>)
 80006ca:	f443 7300 	orr.w	r3, r3, #512	; 0x200
 80006ce:	6013      	str	r3, [r2, #0]
		I2C1NumberOfTransaction++;
 80006d0:	4b07      	ldr	r3, [pc, #28]	; (80006f0 <I2C1_EV_IRQHandler+0x80>)
 80006d2:	781b      	ldrb	r3, [r3, #0]
 80006d4:	3301      	adds	r3, #1
 80006d6:	b2da      	uxtb	r2, r3
 80006d8:	4b05      	ldr	r3, [pc, #20]	; (80006f0 <I2C1_EV_IRQHandler+0x80>)
 80006da:	701a      	strb	r2, [r3, #0]
		i2cSendStates = 3;
 80006dc:	4b03      	ldr	r3, [pc, #12]	; (80006ec <I2C1_EV_IRQHandler+0x7c>)
 80006de:	2203      	movs	r2, #3
 80006e0:	701a      	strb	r2, [r3, #0]
	}

}
 80006e2:	bf00      	nop
 80006e4:	bd80      	pop	{r7, pc}
 80006e6:	bf00      	nop
 80006e8:	40005400 	.word	0x40005400
 80006ec:	20000089 	.word	0x20000089
 80006f0:	20000021 	.word	0x20000021
 80006f4:	20000024 	.word	0x20000024

080006f8 <InitLcdFSM>:

/*************************	 Функции для дисплея 16xx (16xx Display function)	*************************/

void InitLcdFSM (void){
 80006f8:	b480      	push	{r7}
 80006fa:	af00      	add	r7, sp, #0

	lcdStates = 0;
 80006fc:	4b04      	ldr	r3, [pc, #16]	; (8000710 <InitLcdFSM+0x18>)
 80006fe:	2200      	movs	r2, #0
 8000700:	701a      	strb	r2, [r3, #0]
	_lcdStates = 0;
 8000702:	4b04      	ldr	r3, [pc, #16]	; (8000714 <InitLcdFSM+0x1c>)
 8000704:	2200      	movs	r2, #0
 8000706:	701a      	strb	r2, [r3, #0]
}
 8000708:	bf00      	nop
 800070a:	46bd      	mov	sp, r7
 800070c:	bc80      	pop	{r7}
 800070e:	4770      	bx	lr
 8000710:	20000088 	.word	0x20000088
 8000714:	20000022 	.word	0x20000022

08000718 <ProcessLcdFSM>:

void ProcessLcdFSM (void){
 8000718:	b580      	push	{r7, lr}
 800071a:	b082      	sub	sp, #8
 800071c:	af00      	add	r7, sp, #0

	if (lcdStates != _lcdStates) lcdEntry = 1; else lcdEntry = 0;
 800071e:	4b56      	ldr	r3, [pc, #344]	; (8000878 <ProcessLcdFSM+0x160>)
 8000720:	781a      	ldrb	r2, [r3, #0]
 8000722:	4b56      	ldr	r3, [pc, #344]	; (800087c <ProcessLcdFSM+0x164>)
 8000724:	781b      	ldrb	r3, [r3, #0]
 8000726:	429a      	cmp	r2, r3
 8000728:	d003      	beq.n	8000732 <ProcessLcdFSM+0x1a>
 800072a:	4b55      	ldr	r3, [pc, #340]	; (8000880 <ProcessLcdFSM+0x168>)
 800072c:	2201      	movs	r2, #1
 800072e:	701a      	strb	r2, [r3, #0]
 8000730:	e002      	b.n	8000738 <ProcessLcdFSM+0x20>
 8000732:	4b53      	ldr	r3, [pc, #332]	; (8000880 <ProcessLcdFSM+0x168>)
 8000734:	2200      	movs	r2, #0
 8000736:	701a      	strb	r2, [r3, #0]
	_lcdStates = lcdStates;
 8000738:	4b4f      	ldr	r3, [pc, #316]	; (8000878 <ProcessLcdFSM+0x160>)
 800073a:	781a      	ldrb	r2, [r3, #0]
 800073c:	4b4f      	ldr	r3, [pc, #316]	; (800087c <ProcessLcdFSM+0x164>)
 800073e:	701a      	strb	r2, [r3, #0]

	switch (lcdStates){
 8000740:	4b4d      	ldr	r3, [pc, #308]	; (8000878 <ProcessLcdFSM+0x160>)
 8000742:	781b      	ldrb	r3, [r3, #0]
 8000744:	2b03      	cmp	r3, #3
 8000746:	f200 8093 	bhi.w	8000870 <ProcessLcdFSM+0x158>
 800074a:	a201      	add	r2, pc, #4	; (adr r2, 8000750 <ProcessLcdFSM+0x38>)
 800074c:	f852 f023 	ldr.w	pc, [r2, r3, lsl #2]
 8000750:	08000761 	.word	0x08000761
 8000754:	08000793 	.word	0x08000793
 8000758:	0800080b 	.word	0x0800080b
 800075c:	08000863 	.word	0x08000863

	case 0:
		if (GetMessage(LCDStartInit)){
 8000760:	200b      	movs	r0, #11
 8000762:	f000 f9b9 	bl	8000ad8 <GetMessage>
 8000766:	4603      	mov	r3, r0
 8000768:	2b00      	cmp	r3, #0
 800076a:	d07c      	beq.n	8000866 <ProcessLcdFSM+0x14e>

			for (uint8_t i = 0; i < 8; i++){
 800076c:	2300      	movs	r3, #0
 800076e:	71fb      	strb	r3, [r7, #7]
 8000770:	e008      	b.n	8000784 <ProcessLcdFSM+0x6c>
				I2C1Data[i] = BuferLCDInit[i];
 8000772:	79fa      	ldrb	r2, [r7, #7]
 8000774:	79fb      	ldrb	r3, [r7, #7]
 8000776:	4943      	ldr	r1, [pc, #268]	; (8000884 <ProcessLcdFSM+0x16c>)
 8000778:	5c89      	ldrb	r1, [r1, r2]
 800077a:	4a43      	ldr	r2, [pc, #268]	; (8000888 <ProcessLcdFSM+0x170>)
 800077c:	54d1      	strb	r1, [r2, r3]
			for (uint8_t i = 0; i < 8; i++){
 800077e:	79fb      	ldrb	r3, [r7, #7]
 8000780:	3301      	adds	r3, #1
 8000782:	71fb      	strb	r3, [r7, #7]
 8000784:	79fb      	ldrb	r3, [r7, #7]
 8000786:	2b07      	cmp	r3, #7
 8000788:	d9f3      	bls.n	8000772 <ProcessLcdFSM+0x5a>
			}
			lcdStates = 1;
 800078a:	4b3b      	ldr	r3, [pc, #236]	; (8000878 <ProcessLcdFSM+0x160>)
 800078c:	2201      	movs	r2, #1
 800078e:	701a      	strb	r2, [r3, #0]
		}
		break;
 8000790:	e069      	b.n	8000866 <ProcessLcdFSM+0x14e>

	case 1:

		if (lcdEntry == 1){
 8000792:	4b3b      	ldr	r3, [pc, #236]	; (8000880 <ProcessLcdFSM+0x168>)
 8000794:	781b      	ldrb	r3, [r3, #0]
 8000796:	2b01      	cmp	r3, #1
 8000798:	d105      	bne.n	80007a6 <ProcessLcdFSM+0x8e>
			I2C1SendBuferLenght = 4;
 800079a:	4b3c      	ldr	r3, [pc, #240]	; (800088c <ProcessLcdFSM+0x174>)
 800079c:	2204      	movs	r2, #4
 800079e:	701a      	strb	r2, [r3, #0]
			SendMessage(I2C1StartTransaction);
 80007a0:	200a      	movs	r0, #10
 80007a2:	f000 f959 	bl	8000a58 <SendMessage>
		}

		if (I2C1NumberOfTransaction == 4){
 80007a6:	4b3a      	ldr	r3, [pc, #232]	; (8000890 <ProcessLcdFSM+0x178>)
 80007a8:	781b      	ldrb	r3, [r3, #0]
 80007aa:	2b04      	cmp	r3, #4
 80007ac:	d105      	bne.n	80007ba <ProcessLcdFSM+0xa2>
			StartGTimer(LCDTimer);
 80007ae:	2002      	movs	r0, #2
 80007b0:	f000 ffbc 	bl	800172c <StartGTimer>
			I2C1SendBuferLenght = 6;
 80007b4:	4b35      	ldr	r3, [pc, #212]	; (800088c <ProcessLcdFSM+0x174>)
 80007b6:	2206      	movs	r2, #6
 80007b8:	701a      	strb	r2, [r3, #0]
		}

		if (GetGTimerVal(LCDTimer) > 10){
 80007ba:	2002      	movs	r0, #2
 80007bc:	f000 ffe2 	bl	8001784 <GetGTimerVal>
 80007c0:	4603      	mov	r3, r0
 80007c2:	2b0a      	cmp	r3, #10
 80007c4:	d951      	bls.n	800086a <ProcessLcdFSM+0x152>
			if (I2C1NumberOfTransaction == 4){
 80007c6:	4b32      	ldr	r3, [pc, #200]	; (8000890 <ProcessLcdFSM+0x178>)
 80007c8:	781b      	ldrb	r3, [r3, #0]
 80007ca:	2b04      	cmp	r3, #4
 80007cc:	d108      	bne.n	80007e0 <ProcessLcdFSM+0xc8>
				StopGTimer(LCDTimer);
 80007ce:	2002      	movs	r0, #2
 80007d0:	f000 ffc8 	bl	8001764 <StopGTimer>
				SendMessage(I2C1StartTransaction);
 80007d4:	200a      	movs	r0, #10
 80007d6:	f000 f93f 	bl	8000a58 <SendMessage>
				StartGTimer(LCDTimer);
 80007da:	2002      	movs	r0, #2
 80007dc:	f000 ffa6 	bl	800172c <StartGTimer>
			}
			if (I2C1NumberOfTransaction == 6){
 80007e0:	4b2b      	ldr	r3, [pc, #172]	; (8000890 <ProcessLcdFSM+0x178>)
 80007e2:	781b      	ldrb	r3, [r3, #0]
 80007e4:	2b06      	cmp	r3, #6
 80007e6:	d108      	bne.n	80007fa <ProcessLcdFSM+0xe2>
				StopGTimer(LCDTimer);
 80007e8:	2002      	movs	r0, #2
 80007ea:	f000 ffbb 	bl	8001764 <StopGTimer>
				I2C1SendBuferLenght = 8;
 80007ee:	4b27      	ldr	r3, [pc, #156]	; (800088c <ProcessLcdFSM+0x174>)
 80007f0:	2208      	movs	r2, #8
 80007f2:	701a      	strb	r2, [r3, #0]
				SendMessage(I2C1StartTransaction);
 80007f4:	200a      	movs	r0, #10
 80007f6:	f000 f92f 	bl	8000a58 <SendMessage>
			}
			if (I2C1NumberOfTransaction == 8){
 80007fa:	4b25      	ldr	r3, [pc, #148]	; (8000890 <ProcessLcdFSM+0x178>)
 80007fc:	781b      	ldrb	r3, [r3, #0]
 80007fe:	2b08      	cmp	r3, #8
 8000800:	d133      	bne.n	800086a <ProcessLcdFSM+0x152>
				lcdStates = 2;
 8000802:	4b1d      	ldr	r3, [pc, #116]	; (8000878 <ProcessLcdFSM+0x160>)
 8000804:	2202      	movs	r2, #2
 8000806:	701a      	strb	r2, [r3, #0]
			}
		}
		break;
 8000808:	e02f      	b.n	800086a <ProcessLcdFSM+0x152>

	case 2:

		if (lcdEntry == 1){
 800080a:	4b1d      	ldr	r3, [pc, #116]	; (8000880 <ProcessLcdFSM+0x168>)
 800080c:	781b      	ldrb	r3, [r3, #0]
 800080e:	2b01      	cmp	r3, #1
 8000810:	d119      	bne.n	8000846 <ProcessLcdFSM+0x12e>
			for (uint8_t i = 0; i < 24; i++){
 8000812:	2300      	movs	r3, #0
 8000814:	71bb      	strb	r3, [r7, #6]
 8000816:	e00a      	b.n	800082e <ProcessLcdFSM+0x116>
				I2C1Data[i] = BuferLCDInit[i+8];
 8000818:	79bb      	ldrb	r3, [r7, #6]
 800081a:	f103 0208 	add.w	r2, r3, #8
 800081e:	79bb      	ldrb	r3, [r7, #6]
 8000820:	4918      	ldr	r1, [pc, #96]	; (8000884 <ProcessLcdFSM+0x16c>)
 8000822:	5c89      	ldrb	r1, [r1, r2]
 8000824:	4a18      	ldr	r2, [pc, #96]	; (8000888 <ProcessLcdFSM+0x170>)
 8000826:	54d1      	strb	r1, [r2, r3]
			for (uint8_t i = 0; i < 24; i++){
 8000828:	79bb      	ldrb	r3, [r7, #6]
 800082a:	3301      	adds	r3, #1
 800082c:	71bb      	strb	r3, [r7, #6]
 800082e:	79bb      	ldrb	r3, [r7, #6]
 8000830:	2b17      	cmp	r3, #23
 8000832:	d9f1      	bls.n	8000818 <ProcessLcdFSM+0x100>
			}
			I2C1NumberOfTransaction = 0;
 8000834:	4b16      	ldr	r3, [pc, #88]	; (8000890 <ProcessLcdFSM+0x178>)
 8000836:	2200      	movs	r2, #0
 8000838:	701a      	strb	r2, [r3, #0]
			I2C1SendBuferLenght = 24;
 800083a:	4b14      	ldr	r3, [pc, #80]	; (800088c <ProcessLcdFSM+0x174>)
 800083c:	2218      	movs	r2, #24
 800083e:	701a      	strb	r2, [r3, #0]
			SendMessage(I2C1StartTransaction);
 8000840:	200a      	movs	r0, #10
 8000842:	f000 f909 	bl	8000a58 <SendMessage>
		}

		if (I2C1NumberOfTransaction == 24){
 8000846:	4b12      	ldr	r3, [pc, #72]	; (8000890 <ProcessLcdFSM+0x178>)
 8000848:	781b      	ldrb	r3, [r3, #0]
 800084a:	2b18      	cmp	r3, #24
 800084c:	d10f      	bne.n	800086e <ProcessLcdFSM+0x156>
			I2C1NumberOfTransaction = 0;
 800084e:	4b10      	ldr	r3, [pc, #64]	; (8000890 <ProcessLcdFSM+0x178>)
 8000850:	2200      	movs	r2, #0
 8000852:	701a      	strb	r2, [r3, #0]
			I2C1SendBuferLenght = 0;
 8000854:	4b0d      	ldr	r3, [pc, #52]	; (800088c <ProcessLcdFSM+0x174>)
 8000856:	2200      	movs	r2, #0
 8000858:	701a      	strb	r2, [r3, #0]
			lcdStates = 3;
 800085a:	4b07      	ldr	r3, [pc, #28]	; (8000878 <ProcessLcdFSM+0x160>)
 800085c:	2203      	movs	r2, #3
 800085e:	701a      	strb	r2, [r3, #0]
		}
		break;
 8000860:	e005      	b.n	800086e <ProcessLcdFSM+0x156>

	case 3:

		break;
 8000862:	bf00      	nop
 8000864:	e004      	b.n	8000870 <ProcessLcdFSM+0x158>
		break;
 8000866:	bf00      	nop
 8000868:	e002      	b.n	8000870 <ProcessLcdFSM+0x158>
		break;
 800086a:	bf00      	nop
 800086c:	e000      	b.n	8000870 <ProcessLcdFSM+0x158>
		break;
 800086e:	bf00      	nop

	}
}
 8000870:	bf00      	nop
 8000872:	3708      	adds	r7, #8
 8000874:	46bd      	mov	sp, r7
 8000876:	bd80      	pop	{r7, pc}
 8000878:	20000088 	.word	0x20000088
 800087c:	20000022 	.word	0x20000022
 8000880:	2000008a 	.word	0x2000008a
 8000884:	08001a68 	.word	0x08001a68
 8000888:	20000024 	.word	0x20000024
 800088c:	2000008b 	.word	0x2000008b
 8000890:	20000021 	.word	0x20000021

08000894 <InitLedFSM>:
uint8_t _statePis;				// Переменная предыдущего состояния автомата
uint8_t entryPis1;				// Флаг перехода в новое состояние

/*************************	 Code	*************************/

void InitLedFSM (void){
 8000894:	b480      	push	{r7}
 8000896:	af00      	add	r7, sp, #0

	statePis = _statePis = 0;
 8000898:	4b06      	ldr	r3, [pc, #24]	; (80008b4 <InitLedFSM+0x20>)
 800089a:	2200      	movs	r2, #0
 800089c:	701a      	strb	r2, [r3, #0]
 800089e:	4b05      	ldr	r3, [pc, #20]	; (80008b4 <InitLedFSM+0x20>)
 80008a0:	781a      	ldrb	r2, [r3, #0]
 80008a2:	4b05      	ldr	r3, [pc, #20]	; (80008b8 <InitLedFSM+0x24>)
 80008a4:	701a      	strb	r2, [r3, #0]
	entryPis1 = 0;
 80008a6:	4b05      	ldr	r3, [pc, #20]	; (80008bc <InitLedFSM+0x28>)
 80008a8:	2200      	movs	r2, #0
 80008aa:	701a      	strb	r2, [r3, #0]

}
 80008ac:	bf00      	nop
 80008ae:	46bd      	mov	sp, r7
 80008b0:	bc80      	pop	{r7}
 80008b2:	4770      	bx	lr
 80008b4:	2000008e 	.word	0x2000008e
 80008b8:	2000008c 	.word	0x2000008c
 80008bc:	2000008d 	.word	0x2000008d

080008c0 <ProcessLedFSM>:

void ProcessLedFSM (void){
 80008c0:	b580      	push	{r7, lr}
 80008c2:	af00      	add	r7, sp, #0

	if (statePis != _statePis) entryPis1 = 1; else entryPis1 = 0;
 80008c4:	4b31      	ldr	r3, [pc, #196]	; (800098c <ProcessLedFSM+0xcc>)
 80008c6:	781a      	ldrb	r2, [r3, #0]
 80008c8:	4b31      	ldr	r3, [pc, #196]	; (8000990 <ProcessLedFSM+0xd0>)
 80008ca:	781b      	ldrb	r3, [r3, #0]
 80008cc:	429a      	cmp	r2, r3
 80008ce:	d003      	beq.n	80008d8 <ProcessLedFSM+0x18>
 80008d0:	4b30      	ldr	r3, [pc, #192]	; (8000994 <ProcessLedFSM+0xd4>)
 80008d2:	2201      	movs	r2, #1
 80008d4:	701a      	strb	r2, [r3, #0]
 80008d6:	e002      	b.n	80008de <ProcessLedFSM+0x1e>
 80008d8:	4b2e      	ldr	r3, [pc, #184]	; (8000994 <ProcessLedFSM+0xd4>)
 80008da:	2200      	movs	r2, #0
 80008dc:	701a      	strb	r2, [r3, #0]

	_statePis = statePis;
 80008de:	4b2b      	ldr	r3, [pc, #172]	; (800098c <ProcessLedFSM+0xcc>)
 80008e0:	781a      	ldrb	r2, [r3, #0]
 80008e2:	4b2b      	ldr	r3, [pc, #172]	; (8000990 <ProcessLedFSM+0xd0>)
 80008e4:	701a      	strb	r2, [r3, #0]

	switch (statePis){
 80008e6:	4b29      	ldr	r3, [pc, #164]	; (800098c <ProcessLedFSM+0xcc>)
 80008e8:	781b      	ldrb	r3, [r3, #0]
 80008ea:	2b02      	cmp	r3, #2
 80008ec:	d02b      	beq.n	8000946 <ProcessLedFSM+0x86>
 80008ee:	2b02      	cmp	r3, #2
 80008f0:	dc49      	bgt.n	8000986 <ProcessLedFSM+0xc6>
 80008f2:	2b00      	cmp	r3, #0
 80008f4:	d002      	beq.n	80008fc <ProcessLedFSM+0x3c>
 80008f6:	2b01      	cmp	r3, #1
 80008f8:	d00a      	beq.n	8000910 <ProcessLedFSM+0x50>
			StopGTimer(LEDTimer);
		}
		break;
	}

}
 80008fa:	e044      	b.n	8000986 <ProcessLedFSM+0xc6>
		if (GetMessage(LedOnMsg)){
 80008fc:	2001      	movs	r0, #1
 80008fe:	f000 f8eb 	bl	8000ad8 <GetMessage>
 8000902:	4603      	mov	r3, r0
 8000904:	2b00      	cmp	r3, #0
 8000906:	d039      	beq.n	800097c <ProcessLedFSM+0xbc>
			statePis = 1;
 8000908:	4b20      	ldr	r3, [pc, #128]	; (800098c <ProcessLedFSM+0xcc>)
 800090a:	2201      	movs	r2, #1
 800090c:	701a      	strb	r2, [r3, #0]
		break;
 800090e:	e035      	b.n	800097c <ProcessLedFSM+0xbc>
		if (entryPis1 == 1){
 8000910:	4b20      	ldr	r3, [pc, #128]	; (8000994 <ProcessLedFSM+0xd4>)
 8000912:	781b      	ldrb	r3, [r3, #0]
 8000914:	2b01      	cmp	r3, #1
 8000916:	d108      	bne.n	800092a <ProcessLedFSM+0x6a>
			GPIOC->BSRR |= GPIO_BSRR_BS13;
 8000918:	4b1f      	ldr	r3, [pc, #124]	; (8000998 <ProcessLedFSM+0xd8>)
 800091a:	699b      	ldr	r3, [r3, #24]
 800091c:	4a1e      	ldr	r2, [pc, #120]	; (8000998 <ProcessLedFSM+0xd8>)
 800091e:	f443 5300 	orr.w	r3, r3, #8192	; 0x2000
 8000922:	6193      	str	r3, [r2, #24]
			StartGTimer(LEDTimer);
 8000924:	2003      	movs	r0, #3
 8000926:	f000 ff01 	bl	800172c <StartGTimer>
		if (GetGTimerVal(LEDTimer) >= 2000){
 800092a:	2003      	movs	r0, #3
 800092c:	f000 ff2a 	bl	8001784 <GetGTimerVal>
 8000930:	4603      	mov	r3, r0
 8000932:	f5b3 6ffa 	cmp.w	r3, #2000	; 0x7d0
 8000936:	d323      	bcc.n	8000980 <ProcessLedFSM+0xc0>
			statePis = 2;
 8000938:	4b14      	ldr	r3, [pc, #80]	; (800098c <ProcessLedFSM+0xcc>)
 800093a:	2202      	movs	r2, #2
 800093c:	701a      	strb	r2, [r3, #0]
			StopGTimer(LEDTimer);
 800093e:	2003      	movs	r0, #3
 8000940:	f000 ff10 	bl	8001764 <StopGTimer>
		break;
 8000944:	e01c      	b.n	8000980 <ProcessLedFSM+0xc0>
		if (entryPis1 == 1){
 8000946:	4b13      	ldr	r3, [pc, #76]	; (8000994 <ProcessLedFSM+0xd4>)
 8000948:	781b      	ldrb	r3, [r3, #0]
 800094a:	2b01      	cmp	r3, #1
 800094c:	d108      	bne.n	8000960 <ProcessLedFSM+0xa0>
			GPIOC->BSRR |= GPIO_BSRR_BR13;
 800094e:	4b12      	ldr	r3, [pc, #72]	; (8000998 <ProcessLedFSM+0xd8>)
 8000950:	699b      	ldr	r3, [r3, #24]
 8000952:	4a11      	ldr	r2, [pc, #68]	; (8000998 <ProcessLedFSM+0xd8>)
 8000954:	f043 5300 	orr.w	r3, r3, #536870912	; 0x20000000
 8000958:	6193      	str	r3, [r2, #24]
			StartGTimer(LEDTimer);
 800095a:	2003      	movs	r0, #3
 800095c:	f000 fee6 	bl	800172c <StartGTimer>
		if (GetGTimerVal(LEDTimer) >= 2000){
 8000960:	2003      	movs	r0, #3
 8000962:	f000 ff0f 	bl	8001784 <GetGTimerVal>
 8000966:	4603      	mov	r3, r0
 8000968:	f5b3 6ffa 	cmp.w	r3, #2000	; 0x7d0
 800096c:	d30a      	bcc.n	8000984 <ProcessLedFSM+0xc4>
			statePis = 1;
 800096e:	4b07      	ldr	r3, [pc, #28]	; (800098c <ProcessLedFSM+0xcc>)
 8000970:	2201      	movs	r2, #1
 8000972:	701a      	strb	r2, [r3, #0]
			StopGTimer(LEDTimer);
 8000974:	2003      	movs	r0, #3
 8000976:	f000 fef5 	bl	8001764 <StopGTimer>
		break;
 800097a:	e003      	b.n	8000984 <ProcessLedFSM+0xc4>
		break;
 800097c:	bf00      	nop
 800097e:	e002      	b.n	8000986 <ProcessLedFSM+0xc6>
		break;
 8000980:	bf00      	nop
 8000982:	e000      	b.n	8000986 <ProcessLedFSM+0xc6>
		break;
 8000984:	bf00      	nop
}
 8000986:	bf00      	nop
 8000988:	bd80      	pop	{r7, pc}
 800098a:	bf00      	nop
 800098c:	2000008c 	.word	0x2000008c
 8000990:	2000008e 	.word	0x2000008e
 8000994:	2000008d 	.word	0x2000008d
 8000998:	40020800 	.word	0x40020800

0800099c <main>:



/*************************	 Code	*************************/

int main (void){
 800099c:	b580      	push	{r7, lr}
 800099e:	af00      	add	r7, sp, #0

	InitGPIO();
 80009a0:	f000 fdae 	bl	8001500 <InitGPIO>
	GPIOC->BSRR |= GPIO_BSRR_BR14;
 80009a4:	4b1e      	ldr	r3, [pc, #120]	; (8000a20 <main+0x84>)
 80009a6:	699b      	ldr	r3, [r3, #24]
 80009a8:	4a1d      	ldr	r2, [pc, #116]	; (8000a20 <main+0x84>)
 80009aa:	f043 4380 	orr.w	r3, r3, #1073741824	; 0x40000000
 80009ae:	6193      	str	r3, [r2, #24]
	GPIOC->BSRR |= GPIO_BSRR_BR15;
 80009b0:	4b1b      	ldr	r3, [pc, #108]	; (8000a20 <main+0x84>)
 80009b2:	699b      	ldr	r3, [r3, #24]
 80009b4:	4a1a      	ldr	r2, [pc, #104]	; (8000a20 <main+0x84>)
 80009b6:	f043 4300 	orr.w	r3, r3, #2147483648	; 0x80000000
 80009ba:	6193      	str	r3, [r2, #24]
	GPIOC->BSRR |= GPIO_BSRR_BS13;
 80009bc:	4b18      	ldr	r3, [pc, #96]	; (8000a20 <main+0x84>)
 80009be:	699b      	ldr	r3, [r3, #24]
 80009c0:	4a17      	ldr	r2, [pc, #92]	; (8000a20 <main+0x84>)
 80009c2:	f443 5300 	orr.w	r3, r3, #8192	; 0x2000
 80009c6:	6193      	str	r3, [r2, #24]
	InitRCC();
 80009c8:	f000 fcac 	bl	8001324 <InitRCC>
	UpdateNVICActiveAndPriority();
 80009cc:	f000 fd50 	bl	8001470 <UpdateNVICActiveAndPriority>
	InitGTimer();
 80009d0:	f000 fe94 	bl	80016fc <InitGTimer>
	InitTIM10();
 80009d4:	f000 fe1c 	bl	8001610 <InitTIM10>
	InitMessage();
 80009d8:	f000 f824 	bl	8000a24 <InitMessage>
	InitModbusFSM(Baud9600, ParityControlOff, TwoStopBit, RTUMode);
 80009dc:	f242 7314 	movw	r3, #10004	; 0x2714
 80009e0:	f242 7213 	movw	r2, #10003	; 0x2713
 80009e4:	f242 7110 	movw	r1, #10000	; 0x2710
 80009e8:	f242 7010 	movw	r0, #10000	; 0x2710
 80009ec:	f000 f99c 	bl	8000d28 <InitModbusFSM>
	InitLedFSM();
 80009f0:	f7ff ff50 	bl	8000894 <InitLedFSM>
	SendMessage(LedOnMsg);
 80009f4:	2001      	movs	r0, #1
 80009f6:	f000 f82f 	bl	8000a58 <SendMessage>

	InitI2C1FSM();
 80009fa:	f7ff fd97 	bl	800052c <InitI2C1FSM>
	InitLcdFSM();
 80009fe:	f7ff fe7b 	bl	80006f8 <InitLcdFSM>
	SendMessage(LCDStartInit);
 8000a02:	200b      	movs	r0, #11
 8000a04:	f000 f828 	bl	8000a58 <SendMessage>

	while(1){

		ProcessI2CWriteFSM();
 8000a08:	f7ff fdb8 	bl	800057c <ProcessI2CWriteFSM>
		ProcessLcdFSM();
 8000a0c:	f7ff fe84 	bl	8000718 <ProcessLcdFSM>

		ProcessModbusSlaveFSM();
 8000a10:	f000 fb38 	bl	8001084 <ProcessModbusSlaveFSM>
		ProcessLedFSM();
 8000a14:	f7ff ff54 	bl	80008c0 <ProcessLedFSM>
		ProcessMessage();
 8000a18:	f000 f834 	bl	8000a84 <ProcessMessage>
		ProcessI2CWriteFSM();
 8000a1c:	e7f4      	b.n	8000a08 <main+0x6c>
 8000a1e:	bf00      	nop
 8000a20:	40020800 	.word	0x40020800

08000a24 <InitMessage>:

char Messages[MaxNumbMessages];

/*************************	 Code	*************************/

void InitMessage (void){
 8000a24:	b480      	push	{r7}
 8000a26:	b083      	sub	sp, #12
 8000a28:	af00      	add	r7, sp, #0

	int i;

	for (i = 0; i < MaxNumbMessages; i++){
 8000a2a:	2300      	movs	r3, #0
 8000a2c:	607b      	str	r3, [r7, #4]
 8000a2e:	e007      	b.n	8000a40 <InitMessage+0x1c>
		Messages[i] = '0';
 8000a30:	4a08      	ldr	r2, [pc, #32]	; (8000a54 <InitMessage+0x30>)
 8000a32:	687b      	ldr	r3, [r7, #4]
 8000a34:	4413      	add	r3, r2
 8000a36:	2230      	movs	r2, #48	; 0x30
 8000a38:	701a      	strb	r2, [r3, #0]
	for (i = 0; i < MaxNumbMessages; i++){
 8000a3a:	687b      	ldr	r3, [r7, #4]
 8000a3c:	3301      	adds	r3, #1
 8000a3e:	607b      	str	r3, [r7, #4]
 8000a40:	687b      	ldr	r3, [r7, #4]
 8000a42:	2b1d      	cmp	r3, #29
 8000a44:	ddf4      	ble.n	8000a30 <InitMessage+0xc>
	}
}
 8000a46:	bf00      	nop
 8000a48:	bf00      	nop
 8000a4a:	370c      	adds	r7, #12
 8000a4c:	46bd      	mov	sp, r7
 8000a4e:	bc80      	pop	{r7}
 8000a50:	4770      	bx	lr
 8000a52:	bf00      	nop
 8000a54:	20000090 	.word	0x20000090

08000a58 <SendMessage>:

void SendMessage (int Msg){
 8000a58:	b480      	push	{r7}
 8000a5a:	b083      	sub	sp, #12
 8000a5c:	af00      	add	r7, sp, #0
 8000a5e:	6078      	str	r0, [r7, #4]

	if (Messages[Msg] == '0'){
 8000a60:	4a07      	ldr	r2, [pc, #28]	; (8000a80 <SendMessage+0x28>)
 8000a62:	687b      	ldr	r3, [r7, #4]
 8000a64:	4413      	add	r3, r2
 8000a66:	781b      	ldrb	r3, [r3, #0]
 8000a68:	2b30      	cmp	r3, #48	; 0x30
 8000a6a:	d104      	bne.n	8000a76 <SendMessage+0x1e>

		Messages[Msg] = '1';
 8000a6c:	4a04      	ldr	r2, [pc, #16]	; (8000a80 <SendMessage+0x28>)
 8000a6e:	687b      	ldr	r3, [r7, #4]
 8000a70:	4413      	add	r3, r2
 8000a72:	2231      	movs	r2, #49	; 0x31
 8000a74:	701a      	strb	r2, [r3, #0]
	}
}
 8000a76:	bf00      	nop
 8000a78:	370c      	adds	r7, #12
 8000a7a:	46bd      	mov	sp, r7
 8000a7c:	bc80      	pop	{r7}
 8000a7e:	4770      	bx	lr
 8000a80:	20000090 	.word	0x20000090

08000a84 <ProcessMessage>:

void ProcessMessage (void){
 8000a84:	b480      	push	{r7}
 8000a86:	b083      	sub	sp, #12
 8000a88:	af00      	add	r7, sp, #0

	int i;
	for(i = 0; i < MaxNumbMessages; i++){
 8000a8a:	2300      	movs	r3, #0
 8000a8c:	607b      	str	r3, [r7, #4]
 8000a8e:	e018      	b.n	8000ac2 <ProcessMessage+0x3e>

		if(Messages[i] == '2')Messages[i]='0';
 8000a90:	4a10      	ldr	r2, [pc, #64]	; (8000ad4 <ProcessMessage+0x50>)
 8000a92:	687b      	ldr	r3, [r7, #4]
 8000a94:	4413      	add	r3, r2
 8000a96:	781b      	ldrb	r3, [r3, #0]
 8000a98:	2b32      	cmp	r3, #50	; 0x32
 8000a9a:	d104      	bne.n	8000aa6 <ProcessMessage+0x22>
 8000a9c:	4a0d      	ldr	r2, [pc, #52]	; (8000ad4 <ProcessMessage+0x50>)
 8000a9e:	687b      	ldr	r3, [r7, #4]
 8000aa0:	4413      	add	r3, r2
 8000aa2:	2230      	movs	r2, #48	; 0x30
 8000aa4:	701a      	strb	r2, [r3, #0]
		if(Messages[i] == '1')Messages[i]='2';
 8000aa6:	4a0b      	ldr	r2, [pc, #44]	; (8000ad4 <ProcessMessage+0x50>)
 8000aa8:	687b      	ldr	r3, [r7, #4]
 8000aaa:	4413      	add	r3, r2
 8000aac:	781b      	ldrb	r3, [r3, #0]
 8000aae:	2b31      	cmp	r3, #49	; 0x31
 8000ab0:	d104      	bne.n	8000abc <ProcessMessage+0x38>
 8000ab2:	4a08      	ldr	r2, [pc, #32]	; (8000ad4 <ProcessMessage+0x50>)
 8000ab4:	687b      	ldr	r3, [r7, #4]
 8000ab6:	4413      	add	r3, r2
 8000ab8:	2232      	movs	r2, #50	; 0x32
 8000aba:	701a      	strb	r2, [r3, #0]
	for(i = 0; i < MaxNumbMessages; i++){
 8000abc:	687b      	ldr	r3, [r7, #4]
 8000abe:	3301      	adds	r3, #1
 8000ac0:	607b      	str	r3, [r7, #4]
 8000ac2:	687b      	ldr	r3, [r7, #4]
 8000ac4:	2b1d      	cmp	r3, #29
 8000ac6:	dde3      	ble.n	8000a90 <ProcessMessage+0xc>
	}
}
 8000ac8:	bf00      	nop
 8000aca:	bf00      	nop
 8000acc:	370c      	adds	r7, #12
 8000ace:	46bd      	mov	sp, r7
 8000ad0:	bc80      	pop	{r7}
 8000ad2:	4770      	bx	lr
 8000ad4:	20000090 	.word	0x20000090

08000ad8 <GetMessage>:

uint8_t GetMessage (int Msg){
 8000ad8:	b480      	push	{r7}
 8000ada:	b083      	sub	sp, #12
 8000adc:	af00      	add	r7, sp, #0
 8000ade:	6078      	str	r0, [r7, #4]

	if(Messages[Msg] == '2'){
 8000ae0:	4a09      	ldr	r2, [pc, #36]	; (8000b08 <GetMessage+0x30>)
 8000ae2:	687b      	ldr	r3, [r7, #4]
 8000ae4:	4413      	add	r3, r2
 8000ae6:	781b      	ldrb	r3, [r3, #0]
 8000ae8:	2b32      	cmp	r3, #50	; 0x32
 8000aea:	d106      	bne.n	8000afa <GetMessage+0x22>
		Messages[Msg] = '0';
 8000aec:	4a06      	ldr	r2, [pc, #24]	; (8000b08 <GetMessage+0x30>)
 8000aee:	687b      	ldr	r3, [r7, #4]
 8000af0:	4413      	add	r3, r2
 8000af2:	2230      	movs	r2, #48	; 0x30
 8000af4:	701a      	strb	r2, [r3, #0]
		return 1;
 8000af6:	2301      	movs	r3, #1
 8000af8:	e000      	b.n	8000afc <GetMessage+0x24>
	}
	return 0;
 8000afa:	2300      	movs	r3, #0
}
 8000afc:	4618      	mov	r0, r3
 8000afe:	370c      	adds	r7, #12
 8000b00:	46bd      	mov	sp, r7
 8000b02:	bc80      	pop	{r7}
 8000b04:	4770      	bx	lr
 8000b06:	bf00      	nop
 8000b08:	20000090 	.word	0x20000090

08000b0c <InitModbusUSART>:
uint16_t CRCVal;							// Вычисленное значение контрольной суммы
uint16_t CRCRecVal;							// Принятое значение контрольной суммы

/*************************	 Code	*************************/

void InitModbusUSART(uint32_t Speed, uint32_t ParityControl, uint32_t StopBit, uint32_t ModbusMode){
 8000b0c:	b480      	push	{r7}
 8000b0e:	b085      	sub	sp, #20
 8000b10:	af00      	add	r7, sp, #0
 8000b12:	60f8      	str	r0, [r7, #12]
 8000b14:	60b9      	str	r1, [r7, #8]
 8000b16:	607a      	str	r2, [r7, #4]
 8000b18:	603b      	str	r3, [r7, #0]

	/**Включение тактирования модуля USART**/

	RCC->USARTBus |= USARTClock;
 8000b1a:	4b58      	ldr	r3, [pc, #352]	; (8000c7c <InitModbusUSART+0x170>)
 8000b1c:	6c5b      	ldr	r3, [r3, #68]	; 0x44
 8000b1e:	4a57      	ldr	r2, [pc, #348]	; (8000c7c <InitModbusUSART+0x170>)
 8000b20:	f043 0320 	orr.w	r3, r3, #32
 8000b24:	6453      	str	r3, [r2, #68]	; 0x44

	/**Настройка TX на выход альтернативный пуш-пулл**/

	Gpio->PUPDR &= ~TXPinPUPDR;
 8000b26:	4b56      	ldr	r3, [pc, #344]	; (8000c80 <InitModbusUSART+0x174>)
 8000b28:	68db      	ldr	r3, [r3, #12]
 8000b2a:	4a55      	ldr	r2, [pc, #340]	; (8000c80 <InitModbusUSART+0x174>)
 8000b2c:	f423 0340 	bic.w	r3, r3, #12582912	; 0xc00000
 8000b30:	60d3      	str	r3, [r2, #12]
	Gpio->OTYPER &= ~TXPinOTYPER;
 8000b32:	4b53      	ldr	r3, [pc, #332]	; (8000c80 <InitModbusUSART+0x174>)
 8000b34:	685b      	ldr	r3, [r3, #4]
 8000b36:	4a52      	ldr	r2, [pc, #328]	; (8000c80 <InitModbusUSART+0x174>)
 8000b38:	f423 6300 	bic.w	r3, r3, #2048	; 0x800
 8000b3c:	6053      	str	r3, [r2, #4]
	Gpio->OSPEEDR |= TXPinOSPEEDR;
 8000b3e:	4b50      	ldr	r3, [pc, #320]	; (8000c80 <InitModbusUSART+0x174>)
 8000b40:	689b      	ldr	r3, [r3, #8]
 8000b42:	4a4f      	ldr	r2, [pc, #316]	; (8000c80 <InitModbusUSART+0x174>)
 8000b44:	f443 0340 	orr.w	r3, r3, #12582912	; 0xc00000
 8000b48:	6093      	str	r3, [r2, #8]
	Gpio->AFR[1] |= TXPinAFRH;
 8000b4a:	4b4d      	ldr	r3, [pc, #308]	; (8000c80 <InitModbusUSART+0x174>)
 8000b4c:	6a5b      	ldr	r3, [r3, #36]	; 0x24
 8000b4e:	4a4c      	ldr	r2, [pc, #304]	; (8000c80 <InitModbusUSART+0x174>)
 8000b50:	f443 4300 	orr.w	r3, r3, #32768	; 0x8000
 8000b54:	6253      	str	r3, [r2, #36]	; 0x24
	Gpio->MODER &= ~TXPinMODER;
 8000b56:	4b4a      	ldr	r3, [pc, #296]	; (8000c80 <InitModbusUSART+0x174>)
 8000b58:	681b      	ldr	r3, [r3, #0]
 8000b5a:	4a49      	ldr	r2, [pc, #292]	; (8000c80 <InitModbusUSART+0x174>)
 8000b5c:	f423 0340 	bic.w	r3, r3, #12582912	; 0xc00000
 8000b60:	6013      	str	r3, [r2, #0]
	Gpio->MODER |= TXPinMODER1;
 8000b62:	4b47      	ldr	r3, [pc, #284]	; (8000c80 <InitModbusUSART+0x174>)
 8000b64:	681b      	ldr	r3, [r3, #0]
 8000b66:	4a46      	ldr	r2, [pc, #280]	; (8000c80 <InitModbusUSART+0x174>)
 8000b68:	f443 0300 	orr.w	r3, r3, #8388608	; 0x800000
 8000b6c:	6013      	str	r3, [r2, #0]

	/**Настройка RX на OD вход альт. функции**/

	Gpio->PUPDR &= ~RXPinPUPDR;
 8000b6e:	4b44      	ldr	r3, [pc, #272]	; (8000c80 <InitModbusUSART+0x174>)
 8000b70:	68db      	ldr	r3, [r3, #12]
 8000b72:	4a43      	ldr	r2, [pc, #268]	; (8000c80 <InitModbusUSART+0x174>)
 8000b74:	f023 7340 	bic.w	r3, r3, #50331648	; 0x3000000
 8000b78:	60d3      	str	r3, [r2, #12]
	Gpio->OTYPER &= ~RXPinOTYPER;
 8000b7a:	4b41      	ldr	r3, [pc, #260]	; (8000c80 <InitModbusUSART+0x174>)
 8000b7c:	685b      	ldr	r3, [r3, #4]
 8000b7e:	4a40      	ldr	r2, [pc, #256]	; (8000c80 <InitModbusUSART+0x174>)
 8000b80:	f423 5380 	bic.w	r3, r3, #4096	; 0x1000
 8000b84:	6053      	str	r3, [r2, #4]
	Gpio->AFR[1] |= RXPinAFRH;
 8000b86:	4b3e      	ldr	r3, [pc, #248]	; (8000c80 <InitModbusUSART+0x174>)
 8000b88:	6a5b      	ldr	r3, [r3, #36]	; 0x24
 8000b8a:	4a3d      	ldr	r2, [pc, #244]	; (8000c80 <InitModbusUSART+0x174>)
 8000b8c:	f443 2300 	orr.w	r3, r3, #524288	; 0x80000
 8000b90:	6253      	str	r3, [r2, #36]	; 0x24
	Gpio->MODER &= ~RXPinMODER;
 8000b92:	4b3b      	ldr	r3, [pc, #236]	; (8000c80 <InitModbusUSART+0x174>)
 8000b94:	681b      	ldr	r3, [r3, #0]
 8000b96:	4a3a      	ldr	r2, [pc, #232]	; (8000c80 <InitModbusUSART+0x174>)
 8000b98:	f023 7340 	bic.w	r3, r3, #50331648	; 0x3000000
 8000b9c:	6013      	str	r3, [r2, #0]
	Gpio->MODER |= RXPinMODER1;
 8000b9e:	4b38      	ldr	r3, [pc, #224]	; (8000c80 <InitModbusUSART+0x174>)
 8000ba0:	681b      	ldr	r3, [r3, #0]
 8000ba2:	4a37      	ldr	r2, [pc, #220]	; (8000c80 <InitModbusUSART+0x174>)
 8000ba4:	f043 7300 	orr.w	r3, r3, #33554432	; 0x2000000
 8000ba8:	6013      	str	r3, [r2, #0]

	/**Настройка модуля USART**/

	if (ModbusMode == RTUMode){
 8000baa:	683b      	ldr	r3, [r7, #0]
 8000bac:	f242 7214 	movw	r2, #10004	; 0x2714
 8000bb0:	4293      	cmp	r3, r2
 8000bb2:	d15e      	bne.n	8000c72 <InitModbusUSART+0x166>

		USART->BRR = Speed;													// Установка скорости
 8000bb4:	4a33      	ldr	r2, [pc, #204]	; (8000c84 <InitModbusUSART+0x178>)
 8000bb6:	68fb      	ldr	r3, [r7, #12]
 8000bb8:	6093      	str	r3, [r2, #8]

		USART->CR1 |= USART_CR1_RXNEIE;										// Разрешаем прерывание по приёму
 8000bba:	4b32      	ldr	r3, [pc, #200]	; (8000c84 <InitModbusUSART+0x178>)
 8000bbc:	68db      	ldr	r3, [r3, #12]
 8000bbe:	4a31      	ldr	r2, [pc, #196]	; (8000c84 <InitModbusUSART+0x178>)
 8000bc0:	f043 0320 	orr.w	r3, r3, #32
 8000bc4:	60d3      	str	r3, [r2, #12]

		if(ParityControl == ParityControlOn){
 8000bc6:	68bb      	ldr	r3, [r7, #8]
 8000bc8:	f242 7211 	movw	r2, #10001	; 0x2711
 8000bcc:	4293      	cmp	r3, r2
 8000bce:	d10b      	bne.n	8000be8 <InitModbusUSART+0xdc>
			USART->CR1 |= USART_CR1_PCE;									// Включение бита контроля чётности
 8000bd0:	4b2c      	ldr	r3, [pc, #176]	; (8000c84 <InitModbusUSART+0x178>)
 8000bd2:	68db      	ldr	r3, [r3, #12]
 8000bd4:	4a2b      	ldr	r2, [pc, #172]	; (8000c84 <InitModbusUSART+0x178>)
 8000bd6:	f443 6380 	orr.w	r3, r3, #1024	; 0x400
 8000bda:	60d3      	str	r3, [r2, #12]
			USART->CR1 &= ~USART_CR1_PS;									// Включена "Чётная" чётность :)))))
 8000bdc:	4b29      	ldr	r3, [pc, #164]	; (8000c84 <InitModbusUSART+0x178>)
 8000bde:	68db      	ldr	r3, [r3, #12]
 8000be0:	4a28      	ldr	r2, [pc, #160]	; (8000c84 <InitModbusUSART+0x178>)
 8000be2:	f423 7300 	bic.w	r3, r3, #512	; 0x200
 8000be6:	60d3      	str	r3, [r2, #12]
		}

		if(ParityControl == ParityControlOff)USART->CR1 &= ~USART_CR1_PCE;	// Выключение контроля чётности
 8000be8:	68bb      	ldr	r3, [r7, #8]
 8000bea:	f242 7210 	movw	r2, #10000	; 0x2710
 8000bee:	4293      	cmp	r3, r2
 8000bf0:	d105      	bne.n	8000bfe <InitModbusUSART+0xf2>
 8000bf2:	4b24      	ldr	r3, [pc, #144]	; (8000c84 <InitModbusUSART+0x178>)
 8000bf4:	68db      	ldr	r3, [r3, #12]
 8000bf6:	4a23      	ldr	r2, [pc, #140]	; (8000c84 <InitModbusUSART+0x178>)
 8000bf8:	f423 6380 	bic.w	r3, r3, #1024	; 0x400
 8000bfc:	60d3      	str	r3, [r2, #12]

		if(StopBit == OneStopBit)USART->CR2 &= ~USART_CR2_STOP;				// Один стоп-бит
 8000bfe:	687b      	ldr	r3, [r7, #4]
 8000c00:	f242 7212 	movw	r2, #10002	; 0x2712
 8000c04:	4293      	cmp	r3, r2
 8000c06:	d105      	bne.n	8000c14 <InitModbusUSART+0x108>
 8000c08:	4b1e      	ldr	r3, [pc, #120]	; (8000c84 <InitModbusUSART+0x178>)
 8000c0a:	691b      	ldr	r3, [r3, #16]
 8000c0c:	4a1d      	ldr	r2, [pc, #116]	; (8000c84 <InitModbusUSART+0x178>)
 8000c0e:	f423 5340 	bic.w	r3, r3, #12288	; 0x3000
 8000c12:	6113      	str	r3, [r2, #16]

		if(StopBit == TwoStopBit){
 8000c14:	687b      	ldr	r3, [r7, #4]
 8000c16:	f242 7213 	movw	r2, #10003	; 0x2713
 8000c1a:	4293      	cmp	r3, r2
 8000c1c:	d10b      	bne.n	8000c36 <InitModbusUSART+0x12a>
			USART->CR2 &= ~USART_CR2_STOP;
 8000c1e:	4b19      	ldr	r3, [pc, #100]	; (8000c84 <InitModbusUSART+0x178>)
 8000c20:	691b      	ldr	r3, [r3, #16]
 8000c22:	4a18      	ldr	r2, [pc, #96]	; (8000c84 <InitModbusUSART+0x178>)
 8000c24:	f423 5340 	bic.w	r3, r3, #12288	; 0x3000
 8000c28:	6113      	str	r3, [r2, #16]
			USART->CR2 |= USART_CR2_STOP_1;									// Два стоп-бита
 8000c2a:	4b16      	ldr	r3, [pc, #88]	; (8000c84 <InitModbusUSART+0x178>)
 8000c2c:	691b      	ldr	r3, [r3, #16]
 8000c2e:	4a15      	ldr	r2, [pc, #84]	; (8000c84 <InitModbusUSART+0x178>)
 8000c30:	f443 5300 	orr.w	r3, r3, #8192	; 0x2000
 8000c34:	6113      	str	r3, [r2, #16]
		}

		USART->CR1 &= ~USART_CR1_M;											// Структура слова: 1 Start bit, 8 Data bits, n Stop bit
 8000c36:	4b13      	ldr	r3, [pc, #76]	; (8000c84 <InitModbusUSART+0x178>)
 8000c38:	68db      	ldr	r3, [r3, #12]
 8000c3a:	4a12      	ldr	r2, [pc, #72]	; (8000c84 <InitModbusUSART+0x178>)
 8000c3c:	f423 5380 	bic.w	r3, r3, #4096	; 0x1000
 8000c40:	60d3      	str	r3, [r2, #12]
//		USART->CR1 |= ~USART_CR1_M;											// Структура слова: 1 Start bit, 9 Data bits, n Stop bit


//		USART->CR1 |= USART_CR1_IDLEIE;										// Включаем детектирование свободной линии
		USART->CR1 |= USART_CR1_RE;											// Включаем приемник
 8000c42:	4b10      	ldr	r3, [pc, #64]	; (8000c84 <InitModbusUSART+0x178>)
 8000c44:	68db      	ldr	r3, [r3, #12]
 8000c46:	4a0f      	ldr	r2, [pc, #60]	; (8000c84 <InitModbusUSART+0x178>)
 8000c48:	f043 0304 	orr.w	r3, r3, #4
 8000c4c:	60d3      	str	r3, [r2, #12]
		USART->CR1 |= USART_CR1_TE;											// Включаем передатчик
 8000c4e:	4b0d      	ldr	r3, [pc, #52]	; (8000c84 <InitModbusUSART+0x178>)
 8000c50:	68db      	ldr	r3, [r3, #12]
 8000c52:	4a0c      	ldr	r2, [pc, #48]	; (8000c84 <InitModbusUSART+0x178>)
 8000c54:	f043 0308 	orr.w	r3, r3, #8
 8000c58:	60d3      	str	r3, [r2, #12]

		USART->CR3 |= USART_CR3_DMAT;										// Разрешаем запросы к DMA от модуля USART
 8000c5a:	4b0a      	ldr	r3, [pc, #40]	; (8000c84 <InitModbusUSART+0x178>)
 8000c5c:	695b      	ldr	r3, [r3, #20]
 8000c5e:	4a09      	ldr	r2, [pc, #36]	; (8000c84 <InitModbusUSART+0x178>)
 8000c60:	f043 0380 	orr.w	r3, r3, #128	; 0x80
 8000c64:	6153      	str	r3, [r2, #20]

		USART->CR1 |= USART_CR1_UE;											// Включаем модуль USART в работу
 8000c66:	4b07      	ldr	r3, [pc, #28]	; (8000c84 <InitModbusUSART+0x178>)
 8000c68:	68db      	ldr	r3, [r3, #12]
 8000c6a:	4a06      	ldr	r2, [pc, #24]	; (8000c84 <InitModbusUSART+0x178>)
 8000c6c:	f443 5300 	orr.w	r3, r3, #8192	; 0x2000
 8000c70:	60d3      	str	r3, [r2, #12]

	}

}
 8000c72:	bf00      	nop
 8000c74:	3714      	adds	r7, #20
 8000c76:	46bd      	mov	sp, r7
 8000c78:	bc80      	pop	{r7}
 8000c7a:	4770      	bx	lr
 8000c7c:	40023800 	.word	0x40023800
 8000c80:	40020000 	.word	0x40020000
 8000c84:	40011400 	.word	0x40011400

08000c88 <InitDMAforUSART>:

void InitDMAforUSART (void){
 8000c88:	b480      	push	{r7}
 8000c8a:	af00      	add	r7, sp, #0

	RCC->AHB1ENR |= RCC_AHB1ENR_DMA2EN;
 8000c8c:	4b22      	ldr	r3, [pc, #136]	; (8000d18 <InitDMAforUSART+0x90>)
 8000c8e:	6b1b      	ldr	r3, [r3, #48]	; 0x30
 8000c90:	4a21      	ldr	r2, [pc, #132]	; (8000d18 <InitDMAforUSART+0x90>)
 8000c92:	f443 0380 	orr.w	r3, r3, #4194304	; 0x400000
 8000c96:	6313      	str	r3, [r2, #48]	; 0x30

	DMA2_Stream7->CR |= DMA_SxCR_CHSEL_0 |
 8000c98:	4b20      	ldr	r3, [pc, #128]	; (8000d1c <InitDMAforUSART+0x94>)
 8000c9a:	681b      	ldr	r3, [r3, #0]
 8000c9c:	4a1f      	ldr	r2, [pc, #124]	; (8000d1c <InitDMAforUSART+0x94>)
 8000c9e:	f043 6320 	orr.w	r3, r3, #167772160	; 0xa000000
 8000ca2:	6013      	str	r3, [r2, #0]
						DMA_SxCR_CHSEL_2;

	DMA2_Stream7->PAR = (uint32_t) & USART->DR;
 8000ca4:	4b1d      	ldr	r3, [pc, #116]	; (8000d1c <InitDMAforUSART+0x94>)
 8000ca6:	4a1e      	ldr	r2, [pc, #120]	; (8000d20 <InitDMAforUSART+0x98>)
 8000ca8:	609a      	str	r2, [r3, #8]
	DMA2_Stream7->M0AR = (uint32_t) & ModbusSendData[0];
 8000caa:	4b1c      	ldr	r3, [pc, #112]	; (8000d1c <InitDMAforUSART+0x94>)
 8000cac:	4a1d      	ldr	r2, [pc, #116]	; (8000d24 <InitDMAforUSART+0x9c>)
 8000cae:	60da      	str	r2, [r3, #12]

	DMA2_Stream7->CR &= ~DMA_SxCR_MSIZE;
 8000cb0:	4b1a      	ldr	r3, [pc, #104]	; (8000d1c <InitDMAforUSART+0x94>)
 8000cb2:	681b      	ldr	r3, [r3, #0]
 8000cb4:	4a19      	ldr	r2, [pc, #100]	; (8000d1c <InitDMAforUSART+0x94>)
 8000cb6:	f423 43c0 	bic.w	r3, r3, #24576	; 0x6000
 8000cba:	6013      	str	r3, [r2, #0]
	DMA2_Stream7->CR &= ~DMA_SxCR_PSIZE;
 8000cbc:	4b17      	ldr	r3, [pc, #92]	; (8000d1c <InitDMAforUSART+0x94>)
 8000cbe:	681b      	ldr	r3, [r3, #0]
 8000cc0:	4a16      	ldr	r2, [pc, #88]	; (8000d1c <InitDMAforUSART+0x94>)
 8000cc2:	f423 53c0 	bic.w	r3, r3, #6144	; 0x1800
 8000cc6:	6013      	str	r3, [r2, #0]

	DMA2_Stream7->CR |= DMA_SxCR_MINC;
 8000cc8:	4b14      	ldr	r3, [pc, #80]	; (8000d1c <InitDMAforUSART+0x94>)
 8000cca:	681b      	ldr	r3, [r3, #0]
 8000ccc:	4a13      	ldr	r2, [pc, #76]	; (8000d1c <InitDMAforUSART+0x94>)
 8000cce:	f443 6380 	orr.w	r3, r3, #1024	; 0x400
 8000cd2:	6013      	str	r3, [r2, #0]
	DMA2_Stream7->CR &= ~DMA_SxCR_PINC;
 8000cd4:	4b11      	ldr	r3, [pc, #68]	; (8000d1c <InitDMAforUSART+0x94>)
 8000cd6:	681b      	ldr	r3, [r3, #0]
 8000cd8:	4a10      	ldr	r2, [pc, #64]	; (8000d1c <InitDMAforUSART+0x94>)
 8000cda:	f423 7300 	bic.w	r3, r3, #512	; 0x200
 8000cde:	6013      	str	r3, [r2, #0]

	DMA2_Stream7->CR |= DMA_SxCR_PL;
 8000ce0:	4b0e      	ldr	r3, [pc, #56]	; (8000d1c <InitDMAforUSART+0x94>)
 8000ce2:	681b      	ldr	r3, [r3, #0]
 8000ce4:	4a0d      	ldr	r2, [pc, #52]	; (8000d1c <InitDMAforUSART+0x94>)
 8000ce6:	f443 3340 	orr.w	r3, r3, #196608	; 0x30000
 8000cea:	6013      	str	r3, [r2, #0]
	DMA2_Stream7->CR |= DMA_SxCR_DIR_0;
 8000cec:	4b0b      	ldr	r3, [pc, #44]	; (8000d1c <InitDMAforUSART+0x94>)
 8000cee:	681b      	ldr	r3, [r3, #0]
 8000cf0:	4a0a      	ldr	r2, [pc, #40]	; (8000d1c <InitDMAforUSART+0x94>)
 8000cf2:	f043 0340 	orr.w	r3, r3, #64	; 0x40
 8000cf6:	6013      	str	r3, [r2, #0]
	DMA2_Stream7->CR &= ~DMA_SxCR_CIRC;
 8000cf8:	4b08      	ldr	r3, [pc, #32]	; (8000d1c <InitDMAforUSART+0x94>)
 8000cfa:	681b      	ldr	r3, [r3, #0]
 8000cfc:	4a07      	ldr	r2, [pc, #28]	; (8000d1c <InitDMAforUSART+0x94>)
 8000cfe:	f423 7380 	bic.w	r3, r3, #256	; 0x100
 8000d02:	6013      	str	r3, [r2, #0]

	DMA2_Stream7->CR |= DMA_SxCR_TCIE;
 8000d04:	4b05      	ldr	r3, [pc, #20]	; (8000d1c <InitDMAforUSART+0x94>)
 8000d06:	681b      	ldr	r3, [r3, #0]
 8000d08:	4a04      	ldr	r2, [pc, #16]	; (8000d1c <InitDMAforUSART+0x94>)
 8000d0a:	f043 0310 	orr.w	r3, r3, #16
 8000d0e:	6013      	str	r3, [r2, #0]

}
 8000d10:	bf00      	nop
 8000d12:	46bd      	mov	sp, r7
 8000d14:	bc80      	pop	{r7}
 8000d16:	4770      	bx	lr
 8000d18:	40023800 	.word	0x40023800
 8000d1c:	400264b8 	.word	0x400264b8
 8000d20:	40011404 	.word	0x40011404
 8000d24:	200000bc 	.word	0x200000bc

08000d28 <InitModbusFSM>:

void InitModbusFSM (uint32_t Baud, uint32_t Parity, uint32_t StopBit,uint32_t ModbusMode){
 8000d28:	b580      	push	{r7, lr}
 8000d2a:	b084      	sub	sp, #16
 8000d2c:	af00      	add	r7, sp, #0
 8000d2e:	60f8      	str	r0, [r7, #12]
 8000d30:	60b9      	str	r1, [r7, #8]
 8000d32:	607a      	str	r2, [r7, #4]
 8000d34:	603b      	str	r3, [r7, #0]

	InitModbusUSART(Baud, Parity, StopBit, ModbusMode);
 8000d36:	683b      	ldr	r3, [r7, #0]
 8000d38:	687a      	ldr	r2, [r7, #4]
 8000d3a:	68b9      	ldr	r1, [r7, #8]
 8000d3c:	68f8      	ldr	r0, [r7, #12]
 8000d3e:	f7ff fee5 	bl	8000b0c <InitModbusUSART>
	InitDMAforUSART();
 8000d42:	f7ff ffa1 	bl	8000c88 <InitDMAforUSART>
	state = _state = 0;
 8000d46:	4b0d      	ldr	r3, [pc, #52]	; (8000d7c <InitModbusFSM+0x54>)
 8000d48:	2200      	movs	r2, #0
 8000d4a:	701a      	strb	r2, [r3, #0]
 8000d4c:	4b0b      	ldr	r3, [pc, #44]	; (8000d7c <InitModbusFSM+0x54>)
 8000d4e:	781a      	ldrb	r2, [r3, #0]
 8000d50:	4b0b      	ldr	r3, [pc, #44]	; (8000d80 <InitModbusFSM+0x58>)
 8000d52:	701a      	strb	r2, [r3, #0]
	entry = 0;
 8000d54:	4b0b      	ldr	r3, [pc, #44]	; (8000d84 <InitModbusFSM+0x5c>)
 8000d56:	2200      	movs	r2, #0
 8000d58:	701a      	strb	r2, [r3, #0]
	stateMessageGenSlave = _stateMessageGenSlave = 0;
 8000d5a:	4b0b      	ldr	r3, [pc, #44]	; (8000d88 <InitModbusFSM+0x60>)
 8000d5c:	2200      	movs	r2, #0
 8000d5e:	701a      	strb	r2, [r3, #0]
 8000d60:	4b09      	ldr	r3, [pc, #36]	; (8000d88 <InitModbusFSM+0x60>)
 8000d62:	781a      	ldrb	r2, [r3, #0]
 8000d64:	4b09      	ldr	r3, [pc, #36]	; (8000d8c <InitModbusFSM+0x64>)
 8000d66:	701a      	strb	r2, [r3, #0]
	entryMessageGenSlave = 0;
 8000d68:	4b09      	ldr	r3, [pc, #36]	; (8000d90 <InitModbusFSM+0x68>)
 8000d6a:	2200      	movs	r2, #0
 8000d6c:	701a      	strb	r2, [r3, #0]
	CurrentItemOfBuf = 0;
 8000d6e:	4b09      	ldr	r3, [pc, #36]	; (8000d94 <InitModbusFSM+0x6c>)
 8000d70:	2200      	movs	r2, #0
 8000d72:	701a      	strb	r2, [r3, #0]

}
 8000d74:	bf00      	nop
 8000d76:	3710      	adds	r7, #16
 8000d78:	46bd      	mov	sp, r7
 8000d7a:	bd80      	pop	{r7, pc}
 8000d7c:	200000b2 	.word	0x200000b2
 8000d80:	200000b6 	.word	0x200000b6
 8000d84:	200000b0 	.word	0x200000b0
 8000d88:	200000b1 	.word	0x200000b1
 8000d8c:	200000b7 	.word	0x200000b7
 8000d90:	200002c1 	.word	0x200002c1
 8000d94:	200002c0 	.word	0x200002c0

08000d98 <ProcessSlaveModbusMessageReceptionRTUFSM>:

void ProcessSlaveModbusMessageReceptionRTUFSM (void){
 8000d98:	b580      	push	{r7, lr}
 8000d9a:	b082      	sub	sp, #8
 8000d9c:	af00      	add	r7, sp, #0

	if (state != _state) entry = 1; else entry = 0;
 8000d9e:	4b59      	ldr	r3, [pc, #356]	; (8000f04 <ProcessSlaveModbusMessageReceptionRTUFSM+0x16c>)
 8000da0:	781a      	ldrb	r2, [r3, #0]
 8000da2:	4b59      	ldr	r3, [pc, #356]	; (8000f08 <ProcessSlaveModbusMessageReceptionRTUFSM+0x170>)
 8000da4:	781b      	ldrb	r3, [r3, #0]
 8000da6:	429a      	cmp	r2, r3
 8000da8:	d003      	beq.n	8000db2 <ProcessSlaveModbusMessageReceptionRTUFSM+0x1a>
 8000daa:	4b58      	ldr	r3, [pc, #352]	; (8000f0c <ProcessSlaveModbusMessageReceptionRTUFSM+0x174>)
 8000dac:	2201      	movs	r2, #1
 8000dae:	701a      	strb	r2, [r3, #0]
 8000db0:	e002      	b.n	8000db8 <ProcessSlaveModbusMessageReceptionRTUFSM+0x20>
 8000db2:	4b56      	ldr	r3, [pc, #344]	; (8000f0c <ProcessSlaveModbusMessageReceptionRTUFSM+0x174>)
 8000db4:	2200      	movs	r2, #0
 8000db6:	701a      	strb	r2, [r3, #0]

	_state = state;
 8000db8:	4b52      	ldr	r3, [pc, #328]	; (8000f04 <ProcessSlaveModbusMessageReceptionRTUFSM+0x16c>)
 8000dba:	781a      	ldrb	r2, [r3, #0]
 8000dbc:	4b52      	ldr	r3, [pc, #328]	; (8000f08 <ProcessSlaveModbusMessageReceptionRTUFSM+0x170>)
 8000dbe:	701a      	strb	r2, [r3, #0]

	switch (state){
 8000dc0:	4b50      	ldr	r3, [pc, #320]	; (8000f04 <ProcessSlaveModbusMessageReceptionRTUFSM+0x16c>)
 8000dc2:	781b      	ldrb	r3, [r3, #0]
 8000dc4:	2b04      	cmp	r3, #4
 8000dc6:	f200 8099 	bhi.w	8000efc <ProcessSlaveModbusMessageReceptionRTUFSM+0x164>
 8000dca:	a201      	add	r2, pc, #4	; (adr r2, 8000dd0 <ProcessSlaveModbusMessageReceptionRTUFSM+0x38>)
 8000dcc:	f852 f023 	ldr.w	pc, [r2, r3, lsl #2]
 8000dd0:	08000de5 	.word	0x08000de5
 8000dd4:	08000e07 	.word	0x08000e07
 8000dd8:	08000e29 	.word	0x08000e29
 8000ddc:	08000e67 	.word	0x08000e67
 8000de0:	08000ee9 	.word	0x08000ee9

	case 0:

		if (entry == 1){
 8000de4:	4b49      	ldr	r3, [pc, #292]	; (8000f0c <ProcessSlaveModbusMessageReceptionRTUFSM+0x174>)
 8000de6:	781b      	ldrb	r3, [r3, #0]
 8000de8:	2b01      	cmp	r3, #1
 8000dea:	d102      	bne.n	8000df2 <ProcessSlaveModbusMessageReceptionRTUFSM+0x5a>
			CurrentItemOfBuf = 0;
 8000dec:	4b48      	ldr	r3, [pc, #288]	; (8000f10 <ProcessSlaveModbusMessageReceptionRTUFSM+0x178>)
 8000dee:	2200      	movs	r2, #0
 8000df0:	701a      	strb	r2, [r3, #0]
		}

		if(GetMessage(ModbusReciveSymbol)){
 8000df2:	2016      	movs	r0, #22
 8000df4:	f7ff fe70 	bl	8000ad8 <GetMessage>
 8000df8:	4603      	mov	r3, r0
 8000dfa:	2b00      	cmp	r3, #0
 8000dfc:	d07b      	beq.n	8000ef6 <ProcessSlaveModbusMessageReceptionRTUFSM+0x15e>
			state = 1;
 8000dfe:	4b41      	ldr	r3, [pc, #260]	; (8000f04 <ProcessSlaveModbusMessageReceptionRTUFSM+0x16c>)
 8000e00:	2201      	movs	r2, #1
 8000e02:	701a      	strb	r2, [r3, #0]
		}

		break;
 8000e04:	e077      	b.n	8000ef6 <ProcessSlaveModbusMessageReceptionRTUFSM+0x15e>

	case 1:

		if (entry == 1){
 8000e06:	4b41      	ldr	r3, [pc, #260]	; (8000f0c <ProcessSlaveModbusMessageReceptionRTUFSM+0x174>)
 8000e08:	781b      	ldrb	r3, [r3, #0]
 8000e0a:	2b01      	cmp	r3, #1
 8000e0c:	d102      	bne.n	8000e14 <ProcessSlaveModbusMessageReceptionRTUFSM+0x7c>
			ReceptionStatus = ReceptionEnabled;
 8000e0e:	4b41      	ldr	r3, [pc, #260]	; (8000f14 <ProcessSlaveModbusMessageReceptionRTUFSM+0x17c>)
 8000e10:	2264      	movs	r2, #100	; 0x64
 8000e12:	801a      	strh	r2, [r3, #0]
		if(CurrentItemOfBuf >= ModbusBufSize){

			state = 4;
		}

		if(GetMessage(ModbusRTUTimeOut)){
 8000e14:	2017      	movs	r0, #23
 8000e16:	f7ff fe5f 	bl	8000ad8 <GetMessage>
 8000e1a:	4603      	mov	r3, r0
 8000e1c:	2b00      	cmp	r3, #0
 8000e1e:	d06c      	beq.n	8000efa <ProcessSlaveModbusMessageReceptionRTUFSM+0x162>
			state = 2;
 8000e20:	4b38      	ldr	r3, [pc, #224]	; (8000f04 <ProcessSlaveModbusMessageReceptionRTUFSM+0x16c>)
 8000e22:	2202      	movs	r2, #2
 8000e24:	701a      	strb	r2, [r3, #0]
		}

		break;
 8000e26:	e068      	b.n	8000efa <ProcessSlaveModbusMessageReceptionRTUFSM+0x162>

	case 2:

		if (ModbusData[0] == ModbusSlaveAdress || ModbusData[0] == 0x00){	// Если адрес совпал, переходим в состояние 3 (вычисление CRC)
 8000e28:	4b3b      	ldr	r3, [pc, #236]	; (8000f18 <ProcessSlaveModbusMessageReceptionRTUFSM+0x180>)
 8000e2a:	781b      	ldrb	r3, [r3, #0]
 8000e2c:	2b12      	cmp	r3, #18
 8000e2e:	d003      	beq.n	8000e38 <ProcessSlaveModbusMessageReceptionRTUFSM+0xa0>
 8000e30:	4b39      	ldr	r3, [pc, #228]	; (8000f18 <ProcessSlaveModbusMessageReceptionRTUFSM+0x180>)
 8000e32:	781b      	ldrb	r3, [r3, #0]
 8000e34:	2b00      	cmp	r3, #0
 8000e36:	d103      	bne.n	8000e40 <ProcessSlaveModbusMessageReceptionRTUFSM+0xa8>
			state = 3;
 8000e38:	4b32      	ldr	r3, [pc, #200]	; (8000f04 <ProcessSlaveModbusMessageReceptionRTUFSM+0x16c>)
 8000e3a:	2203      	movs	r2, #3
 8000e3c:	701a      	strb	r2, [r3, #0]
			for(uint8_t i = 0; i < CurrentItemOfBuf; i++){
				ModbusData[i] = 0;											// Затираем принятое сообщение Modbus
			}
		}

		break;
 8000e3e:	e05d      	b.n	8000efc <ProcessSlaveModbusMessageReceptionRTUFSM+0x164>
			state = 0;														// Eсли адрес не совпадает с адресом устройства или широковещательным, переходим в состояние 0 (ожидание приёма сообщения)
 8000e40:	4b30      	ldr	r3, [pc, #192]	; (8000f04 <ProcessSlaveModbusMessageReceptionRTUFSM+0x16c>)
 8000e42:	2200      	movs	r2, #0
 8000e44:	701a      	strb	r2, [r3, #0]
			for(uint8_t i = 0; i < CurrentItemOfBuf; i++){
 8000e46:	2300      	movs	r3, #0
 8000e48:	71fb      	strb	r3, [r7, #7]
 8000e4a:	e006      	b.n	8000e5a <ProcessSlaveModbusMessageReceptionRTUFSM+0xc2>
				ModbusData[i] = 0;											// Затираем принятое сообщение Modbus
 8000e4c:	79fb      	ldrb	r3, [r7, #7]
 8000e4e:	4a32      	ldr	r2, [pc, #200]	; (8000f18 <ProcessSlaveModbusMessageReceptionRTUFSM+0x180>)
 8000e50:	2100      	movs	r1, #0
 8000e52:	54d1      	strb	r1, [r2, r3]
			for(uint8_t i = 0; i < CurrentItemOfBuf; i++){
 8000e54:	79fb      	ldrb	r3, [r7, #7]
 8000e56:	3301      	adds	r3, #1
 8000e58:	71fb      	strb	r3, [r7, #7]
 8000e5a:	4b2d      	ldr	r3, [pc, #180]	; (8000f10 <ProcessSlaveModbusMessageReceptionRTUFSM+0x178>)
 8000e5c:	781b      	ldrb	r3, [r3, #0]
 8000e5e:	79fa      	ldrb	r2, [r7, #7]
 8000e60:	429a      	cmp	r2, r3
 8000e62:	d3f3      	bcc.n	8000e4c <ProcessSlaveModbusMessageReceptionRTUFSM+0xb4>
		break;
 8000e64:	e04a      	b.n	8000efc <ProcessSlaveModbusMessageReceptionRTUFSM+0x164>

	case 3:

		CRCVal = 0;
 8000e66:	4b2d      	ldr	r3, [pc, #180]	; (8000f1c <ProcessSlaveModbusMessageReceptionRTUFSM+0x184>)
 8000e68:	2200      	movs	r2, #0
 8000e6a:	801a      	strh	r2, [r3, #0]
		CRCRecVal = 0;
 8000e6c:	4b2c      	ldr	r3, [pc, #176]	; (8000f20 <ProcessSlaveModbusMessageReceptionRTUFSM+0x188>)
 8000e6e:	2200      	movs	r2, #0
 8000e70:	801a      	strh	r2, [r3, #0]

		CRCVal = CRC16(ModbusData, CurrentItemOfBuf - 2);					// Вычисляем CRC16
 8000e72:	4b27      	ldr	r3, [pc, #156]	; (8000f10 <ProcessSlaveModbusMessageReceptionRTUFSM+0x178>)
 8000e74:	781b      	ldrb	r3, [r3, #0]
 8000e76:	b29b      	uxth	r3, r3
 8000e78:	3b02      	subs	r3, #2
 8000e7a:	b29b      	uxth	r3, r3
 8000e7c:	4619      	mov	r1, r3
 8000e7e:	4826      	ldr	r0, [pc, #152]	; (8000f18 <ProcessSlaveModbusMessageReceptionRTUFSM+0x180>)
 8000e80:	f7ff fa58 	bl	8000334 <CRC16>
 8000e84:	4603      	mov	r3, r0
 8000e86:	461a      	mov	r2, r3
 8000e88:	4b24      	ldr	r3, [pc, #144]	; (8000f1c <ProcessSlaveModbusMessageReceptionRTUFSM+0x184>)
 8000e8a:	801a      	strh	r2, [r3, #0]

		uint8_t CrcHi;
		uint8_t CrcLo;

		CrcHi = ModbusData [CurrentItemOfBuf - 2];
 8000e8c:	4b20      	ldr	r3, [pc, #128]	; (8000f10 <ProcessSlaveModbusMessageReceptionRTUFSM+0x178>)
 8000e8e:	781b      	ldrb	r3, [r3, #0]
 8000e90:	3b02      	subs	r3, #2
 8000e92:	4a21      	ldr	r2, [pc, #132]	; (8000f18 <ProcessSlaveModbusMessageReceptionRTUFSM+0x180>)
 8000e94:	5cd3      	ldrb	r3, [r2, r3]
 8000e96:	71bb      	strb	r3, [r7, #6]
		CrcLo = ModbusData [CurrentItemOfBuf - 1];
 8000e98:	4b1d      	ldr	r3, [pc, #116]	; (8000f10 <ProcessSlaveModbusMessageReceptionRTUFSM+0x178>)
 8000e9a:	781b      	ldrb	r3, [r3, #0]
 8000e9c:	3b01      	subs	r3, #1
 8000e9e:	4a1e      	ldr	r2, [pc, #120]	; (8000f18 <ProcessSlaveModbusMessageReceptionRTUFSM+0x180>)
 8000ea0:	5cd3      	ldrb	r3, [r2, r3]
 8000ea2:	717b      	strb	r3, [r7, #5]

		CRCRecVal = ((CrcHi << 8) | CrcLo);									// Записываем во временную переменную значение принятой контрольной суммы
 8000ea4:	79bb      	ldrb	r3, [r7, #6]
 8000ea6:	021b      	lsls	r3, r3, #8
 8000ea8:	b21a      	sxth	r2, r3
 8000eaa:	797b      	ldrb	r3, [r7, #5]
 8000eac:	b21b      	sxth	r3, r3
 8000eae:	4313      	orrs	r3, r2
 8000eb0:	b21b      	sxth	r3, r3
 8000eb2:	b29a      	uxth	r2, r3
 8000eb4:	4b1a      	ldr	r3, [pc, #104]	; (8000f20 <ProcessSlaveModbusMessageReceptionRTUFSM+0x188>)
 8000eb6:	801a      	strh	r2, [r3, #0]

		if (CRCVal == CRCRecVal) {											// Сравниваем значения контрольных сумм
 8000eb8:	4b18      	ldr	r3, [pc, #96]	; (8000f1c <ProcessSlaveModbusMessageReceptionRTUFSM+0x184>)
 8000eba:	881a      	ldrh	r2, [r3, #0]
 8000ebc:	4b18      	ldr	r3, [pc, #96]	; (8000f20 <ProcessSlaveModbusMessageReceptionRTUFSM+0x188>)
 8000ebe:	881b      	ldrh	r3, [r3, #0]
 8000ec0:	429a      	cmp	r2, r3
 8000ec2:	d10a      	bne.n	8000eda <ProcessSlaveModbusMessageReceptionRTUFSM+0x142>
			SendMessage(ModbusMessageReceived);								// Сообщение Modbus получено
 8000ec4:	201b      	movs	r0, #27
 8000ec6:	f7ff fdc7 	bl	8000a58 <SendMessage>
			_CurrentItemOfBuf = CurrentItemOfBuf;
 8000eca:	4b11      	ldr	r3, [pc, #68]	; (8000f10 <ProcessSlaveModbusMessageReceptionRTUFSM+0x178>)
 8000ecc:	781a      	ldrb	r2, [r3, #0]
 8000ece:	4b15      	ldr	r3, [pc, #84]	; (8000f24 <ProcessSlaveModbusMessageReceptionRTUFSM+0x18c>)
 8000ed0:	701a      	strb	r2, [r3, #0]
			state = 0;
 8000ed2:	4b0c      	ldr	r3, [pc, #48]	; (8000f04 <ProcessSlaveModbusMessageReceptionRTUFSM+0x16c>)
 8000ed4:	2200      	movs	r2, #0
 8000ed6:	701a      	strb	r2, [r3, #0]
		else {
			SendMessage(ModbusCRCNotOk);
			state = 4;
		}

		break;
 8000ed8:	e010      	b.n	8000efc <ProcessSlaveModbusMessageReceptionRTUFSM+0x164>
			SendMessage(ModbusCRCNotOk);
 8000eda:	201a      	movs	r0, #26
 8000edc:	f7ff fdbc 	bl	8000a58 <SendMessage>
			state = 4;
 8000ee0:	4b08      	ldr	r3, [pc, #32]	; (8000f04 <ProcessSlaveModbusMessageReceptionRTUFSM+0x16c>)
 8000ee2:	2204      	movs	r2, #4
 8000ee4:	701a      	strb	r2, [r3, #0]
		break;
 8000ee6:	e009      	b.n	8000efc <ProcessSlaveModbusMessageReceptionRTUFSM+0x164>

	case 4:

		SendMessage(ModbusError);
 8000ee8:	2015      	movs	r0, #21
 8000eea:	f7ff fdb5 	bl	8000a58 <SendMessage>
		state = 0;
 8000eee:	4b05      	ldr	r3, [pc, #20]	; (8000f04 <ProcessSlaveModbusMessageReceptionRTUFSM+0x16c>)
 8000ef0:	2200      	movs	r2, #0
 8000ef2:	701a      	strb	r2, [r3, #0]

		break;
 8000ef4:	e002      	b.n	8000efc <ProcessSlaveModbusMessageReceptionRTUFSM+0x164>
		break;
 8000ef6:	bf00      	nop
 8000ef8:	e000      	b.n	8000efc <ProcessSlaveModbusMessageReceptionRTUFSM+0x164>
		break;
 8000efa:	bf00      	nop

	}

}
 8000efc:	bf00      	nop
 8000efe:	3708      	adds	r7, #8
 8000f00:	46bd      	mov	sp, r7
 8000f02:	bd80      	pop	{r7, pc}
 8000f04:	200000b6 	.word	0x200000b6
 8000f08:	200000b2 	.word	0x200000b2
 8000f0c:	200000b0 	.word	0x200000b0
 8000f10:	200002c0 	.word	0x200002c0
 8000f14:	200002dc 	.word	0x200002dc
 8000f18:	200001c0 	.word	0x200001c0
 8000f1c:	200000b4 	.word	0x200000b4
 8000f20:	200001bc 	.word	0x200001bc
 8000f24:	200000b8 	.word	0x200000b8

08000f28 <ProcessMessageGenerationSlaveModbusRTUFSM>:

void ProcessMessageGenerationSlaveModbusRTUFSM (void){
 8000f28:	b580      	push	{r7, lr}
 8000f2a:	b082      	sub	sp, #8
 8000f2c:	af00      	add	r7, sp, #0

	if (stateMessageGenSlave != _stateMessageGenSlave) entryMessageGenSlave = 1; else entryMessageGenSlave = 0;
 8000f2e:	4b4c      	ldr	r3, [pc, #304]	; (8001060 <ProcessMessageGenerationSlaveModbusRTUFSM+0x138>)
 8000f30:	781a      	ldrb	r2, [r3, #0]
 8000f32:	4b4c      	ldr	r3, [pc, #304]	; (8001064 <ProcessMessageGenerationSlaveModbusRTUFSM+0x13c>)
 8000f34:	781b      	ldrb	r3, [r3, #0]
 8000f36:	429a      	cmp	r2, r3
 8000f38:	d003      	beq.n	8000f42 <ProcessMessageGenerationSlaveModbusRTUFSM+0x1a>
 8000f3a:	4b4b      	ldr	r3, [pc, #300]	; (8001068 <ProcessMessageGenerationSlaveModbusRTUFSM+0x140>)
 8000f3c:	2201      	movs	r2, #1
 8000f3e:	701a      	strb	r2, [r3, #0]
 8000f40:	e002      	b.n	8000f48 <ProcessMessageGenerationSlaveModbusRTUFSM+0x20>
 8000f42:	4b49      	ldr	r3, [pc, #292]	; (8001068 <ProcessMessageGenerationSlaveModbusRTUFSM+0x140>)
 8000f44:	2200      	movs	r2, #0
 8000f46:	701a      	strb	r2, [r3, #0]

	_stateMessageGenSlave = stateMessageGenSlave;
 8000f48:	4b45      	ldr	r3, [pc, #276]	; (8001060 <ProcessMessageGenerationSlaveModbusRTUFSM+0x138>)
 8000f4a:	781a      	ldrb	r2, [r3, #0]
 8000f4c:	4b45      	ldr	r3, [pc, #276]	; (8001064 <ProcessMessageGenerationSlaveModbusRTUFSM+0x13c>)
 8000f4e:	701a      	strb	r2, [r3, #0]

	switch (stateMessageGenSlave){
 8000f50:	4b43      	ldr	r3, [pc, #268]	; (8001060 <ProcessMessageGenerationSlaveModbusRTUFSM+0x138>)
 8000f52:	781b      	ldrb	r3, [r3, #0]
 8000f54:	2b03      	cmp	r3, #3
 8000f56:	d87e      	bhi.n	8001056 <ProcessMessageGenerationSlaveModbusRTUFSM+0x12e>
 8000f58:	a201      	add	r2, pc, #4	; (adr r2, 8000f60 <ProcessMessageGenerationSlaveModbusRTUFSM+0x38>)
 8000f5a:	f852 f023 	ldr.w	pc, [r2, r3, lsl #2]
 8000f5e:	bf00      	nop
 8000f60:	08000f71 	.word	0x08000f71
 8000f64:	08000fab 	.word	0x08000fab
 8000f68:	08000fb9 	.word	0x08000fb9
 8000f6c:	08001023 	.word	0x08001023

	case 0:
		if (entryMessageGenSlave == 1){
 8000f70:	4b3d      	ldr	r3, [pc, #244]	; (8001068 <ProcessMessageGenerationSlaveModbusRTUFSM+0x140>)
 8000f72:	781b      	ldrb	r3, [r3, #0]
 8000f74:	2b01      	cmp	r3, #1
 8000f76:	d10e      	bne.n	8000f96 <ProcessMessageGenerationSlaveModbusRTUFSM+0x6e>

			for(uint8_t i = 0; i < _CurrentItemOfBuf; i++){
 8000f78:	2300      	movs	r3, #0
 8000f7a:	71fb      	strb	r3, [r7, #7]
 8000f7c:	e006      	b.n	8000f8c <ProcessMessageGenerationSlaveModbusRTUFSM+0x64>

				ModbusSendData[i] = 0;
 8000f7e:	79fb      	ldrb	r3, [r7, #7]
 8000f80:	4a3a      	ldr	r2, [pc, #232]	; (800106c <ProcessMessageGenerationSlaveModbusRTUFSM+0x144>)
 8000f82:	2100      	movs	r1, #0
 8000f84:	54d1      	strb	r1, [r2, r3]
			for(uint8_t i = 0; i < _CurrentItemOfBuf; i++){
 8000f86:	79fb      	ldrb	r3, [r7, #7]
 8000f88:	3301      	adds	r3, #1
 8000f8a:	71fb      	strb	r3, [r7, #7]
 8000f8c:	4b38      	ldr	r3, [pc, #224]	; (8001070 <ProcessMessageGenerationSlaveModbusRTUFSM+0x148>)
 8000f8e:	781b      	ldrb	r3, [r3, #0]
 8000f90:	79fa      	ldrb	r2, [r7, #7]
 8000f92:	429a      	cmp	r2, r3
 8000f94:	d3f3      	bcc.n	8000f7e <ProcessMessageGenerationSlaveModbusRTUFSM+0x56>

			}

		}

		if (GetMessage(ModbusMessageReceived)){
 8000f96:	201b      	movs	r0, #27
 8000f98:	f7ff fd9e 	bl	8000ad8 <GetMessage>
 8000f9c:	4603      	mov	r3, r0
 8000f9e:	2b00      	cmp	r3, #0
 8000fa0:	d054      	beq.n	800104c <ProcessMessageGenerationSlaveModbusRTUFSM+0x124>
			stateMessageGenSlave = 1;
 8000fa2:	4b2f      	ldr	r3, [pc, #188]	; (8001060 <ProcessMessageGenerationSlaveModbusRTUFSM+0x138>)
 8000fa4:	2201      	movs	r2, #1
 8000fa6:	701a      	strb	r2, [r3, #0]
		}
			break;
 8000fa8:	e050      	b.n	800104c <ProcessMessageGenerationSlaveModbusRTUFSM+0x124>

	case 1:

		if (ModbusData[1] == 0x05){
 8000faa:	4b32      	ldr	r3, [pc, #200]	; (8001074 <ProcessMessageGenerationSlaveModbusRTUFSM+0x14c>)
 8000fac:	785b      	ldrb	r3, [r3, #1]
 8000fae:	2b05      	cmp	r3, #5
 8000fb0:	d14e      	bne.n	8001050 <ProcessMessageGenerationSlaveModbusRTUFSM+0x128>

			WriteSingleCoil();
 8000fb2:	f000 f8bf 	bl	8001134 <WriteSingleCoil>
		}

		break;
 8000fb6:	e04b      	b.n	8001050 <ProcessMessageGenerationSlaveModbusRTUFSM+0x128>

	case 2:

		CRCRecVal = CRC16(ModbusSendData, _CurrentItemOfBuf - 2);
 8000fb8:	4b2d      	ldr	r3, [pc, #180]	; (8001070 <ProcessMessageGenerationSlaveModbusRTUFSM+0x148>)
 8000fba:	781b      	ldrb	r3, [r3, #0]
 8000fbc:	b29b      	uxth	r3, r3
 8000fbe:	3b02      	subs	r3, #2
 8000fc0:	b29b      	uxth	r3, r3
 8000fc2:	4619      	mov	r1, r3
 8000fc4:	4829      	ldr	r0, [pc, #164]	; (800106c <ProcessMessageGenerationSlaveModbusRTUFSM+0x144>)
 8000fc6:	f7ff f9b5 	bl	8000334 <CRC16>
 8000fca:	4603      	mov	r3, r0
 8000fcc:	461a      	mov	r2, r3
 8000fce:	4b2a      	ldr	r3, [pc, #168]	; (8001078 <ProcessMessageGenerationSlaveModbusRTUFSM+0x150>)
 8000fd0:	801a      	strh	r2, [r3, #0]

		ModbusSendData[_CurrentItemOfBuf-2] |= CRCRecVal;
 8000fd2:	4b27      	ldr	r3, [pc, #156]	; (8001070 <ProcessMessageGenerationSlaveModbusRTUFSM+0x148>)
 8000fd4:	781b      	ldrb	r3, [r3, #0]
 8000fd6:	3b02      	subs	r3, #2
 8000fd8:	4a24      	ldr	r2, [pc, #144]	; (800106c <ProcessMessageGenerationSlaveModbusRTUFSM+0x144>)
 8000fda:	5cd1      	ldrb	r1, [r2, r3]
 8000fdc:	4b26      	ldr	r3, [pc, #152]	; (8001078 <ProcessMessageGenerationSlaveModbusRTUFSM+0x150>)
 8000fde:	881b      	ldrh	r3, [r3, #0]
 8000fe0:	b2da      	uxtb	r2, r3
 8000fe2:	4b23      	ldr	r3, [pc, #140]	; (8001070 <ProcessMessageGenerationSlaveModbusRTUFSM+0x148>)
 8000fe4:	781b      	ldrb	r3, [r3, #0]
 8000fe6:	3b02      	subs	r3, #2
 8000fe8:	430a      	orrs	r2, r1
 8000fea:	b2d1      	uxtb	r1, r2
 8000fec:	4a1f      	ldr	r2, [pc, #124]	; (800106c <ProcessMessageGenerationSlaveModbusRTUFSM+0x144>)
 8000fee:	54d1      	strb	r1, [r2, r3]

		CRCRecVal = CRCRecVal >> 8;
 8000ff0:	4b21      	ldr	r3, [pc, #132]	; (8001078 <ProcessMessageGenerationSlaveModbusRTUFSM+0x150>)
 8000ff2:	881b      	ldrh	r3, [r3, #0]
 8000ff4:	0a1b      	lsrs	r3, r3, #8
 8000ff6:	b29a      	uxth	r2, r3
 8000ff8:	4b1f      	ldr	r3, [pc, #124]	; (8001078 <ProcessMessageGenerationSlaveModbusRTUFSM+0x150>)
 8000ffa:	801a      	strh	r2, [r3, #0]

		ModbusSendData[_CurrentItemOfBuf-1] |= CRCRecVal;
 8000ffc:	4b1c      	ldr	r3, [pc, #112]	; (8001070 <ProcessMessageGenerationSlaveModbusRTUFSM+0x148>)
 8000ffe:	781b      	ldrb	r3, [r3, #0]
 8001000:	3b01      	subs	r3, #1
 8001002:	4a1a      	ldr	r2, [pc, #104]	; (800106c <ProcessMessageGenerationSlaveModbusRTUFSM+0x144>)
 8001004:	5cd1      	ldrb	r1, [r2, r3]
 8001006:	4b1c      	ldr	r3, [pc, #112]	; (8001078 <ProcessMessageGenerationSlaveModbusRTUFSM+0x150>)
 8001008:	881b      	ldrh	r3, [r3, #0]
 800100a:	b2da      	uxtb	r2, r3
 800100c:	4b18      	ldr	r3, [pc, #96]	; (8001070 <ProcessMessageGenerationSlaveModbusRTUFSM+0x148>)
 800100e:	781b      	ldrb	r3, [r3, #0]
 8001010:	3b01      	subs	r3, #1
 8001012:	430a      	orrs	r2, r1
 8001014:	b2d1      	uxtb	r1, r2
 8001016:	4a15      	ldr	r2, [pc, #84]	; (800106c <ProcessMessageGenerationSlaveModbusRTUFSM+0x144>)
 8001018:	54d1      	strb	r1, [r2, r3]

		stateMessageGenSlave = 3;
 800101a:	4b11      	ldr	r3, [pc, #68]	; (8001060 <ProcessMessageGenerationSlaveModbusRTUFSM+0x138>)
 800101c:	2203      	movs	r2, #3
 800101e:	701a      	strb	r2, [r3, #0]

		break;
 8001020:	e019      	b.n	8001056 <ProcessMessageGenerationSlaveModbusRTUFSM+0x12e>

	case 3:


		if (entryMessageGenSlave == 1){
 8001022:	4b11      	ldr	r3, [pc, #68]	; (8001068 <ProcessMessageGenerationSlaveModbusRTUFSM+0x140>)
 8001024:	781b      	ldrb	r3, [r3, #0]
 8001026:	2b01      	cmp	r3, #1
 8001028:	d114      	bne.n	8001054 <ProcessMessageGenerationSlaveModbusRTUFSM+0x12c>

			USART->SR &= ~USART_SR_TC;
 800102a:	4b14      	ldr	r3, [pc, #80]	; (800107c <ProcessMessageGenerationSlaveModbusRTUFSM+0x154>)
 800102c:	681b      	ldr	r3, [r3, #0]
 800102e:	4a13      	ldr	r2, [pc, #76]	; (800107c <ProcessMessageGenerationSlaveModbusRTUFSM+0x154>)
 8001030:	f023 0340 	bic.w	r3, r3, #64	; 0x40
 8001034:	6013      	str	r3, [r2, #0]

			DMA2_Stream7->NDTR = _CurrentItemOfBuf;
 8001036:	4b0e      	ldr	r3, [pc, #56]	; (8001070 <ProcessMessageGenerationSlaveModbusRTUFSM+0x148>)
 8001038:	781a      	ldrb	r2, [r3, #0]
 800103a:	4b11      	ldr	r3, [pc, #68]	; (8001080 <ProcessMessageGenerationSlaveModbusRTUFSM+0x158>)
 800103c:	605a      	str	r2, [r3, #4]

			DMA2_Stream7->CR |= DMA_SxCR_EN;
 800103e:	4b10      	ldr	r3, [pc, #64]	; (8001080 <ProcessMessageGenerationSlaveModbusRTUFSM+0x158>)
 8001040:	681b      	ldr	r3, [r3, #0]
 8001042:	4a0f      	ldr	r2, [pc, #60]	; (8001080 <ProcessMessageGenerationSlaveModbusRTUFSM+0x158>)
 8001044:	f043 0301 	orr.w	r3, r3, #1
 8001048:	6013      	str	r3, [r2, #0]

		}

		break;
 800104a:	e003      	b.n	8001054 <ProcessMessageGenerationSlaveModbusRTUFSM+0x12c>
			break;
 800104c:	bf00      	nop
 800104e:	e002      	b.n	8001056 <ProcessMessageGenerationSlaveModbusRTUFSM+0x12e>
		break;
 8001050:	bf00      	nop
 8001052:	e000      	b.n	8001056 <ProcessMessageGenerationSlaveModbusRTUFSM+0x12e>
		break;
 8001054:	bf00      	nop

	}
}
 8001056:	bf00      	nop
 8001058:	3708      	adds	r7, #8
 800105a:	46bd      	mov	sp, r7
 800105c:	bd80      	pop	{r7, pc}
 800105e:	bf00      	nop
 8001060:	200000b7 	.word	0x200000b7
 8001064:	200000b1 	.word	0x200000b1
 8001068:	200002c1 	.word	0x200002c1
 800106c:	200000bc 	.word	0x200000bc
 8001070:	200000b8 	.word	0x200000b8
 8001074:	200001c0 	.word	0x200001c0
 8001078:	200001bc 	.word	0x200001bc
 800107c:	40011400 	.word	0x40011400
 8001080:	400264b8 	.word	0x400264b8

08001084 <ProcessModbusSlaveFSM>:


void ProcessModbusSlaveFSM (void){
 8001084:	b580      	push	{r7, lr}
 8001086:	af00      	add	r7, sp, #0

	ProcessSlaveModbusMessageReceptionRTUFSM();
 8001088:	f7ff fe86 	bl	8000d98 <ProcessSlaveModbusMessageReceptionRTUFSM>
	ProcessMessageGenerationSlaveModbusRTUFSM();
 800108c:	f7ff ff4c 	bl	8000f28 <ProcessMessageGenerationSlaveModbusRTUFSM>

}
 8001090:	bf00      	nop
 8001092:	bd80      	pop	{r7, pc}

08001094 <USART6_IRQHandler>:


/*************************	 IRQ_Handler (Обработчики прерываний)	*************************/


void ModbusUSART_IRQHandler (void){
 8001094:	b580      	push	{r7, lr}
 8001096:	af00      	add	r7, sp, #0

	if (USART->SR & USART_SR_RXNE){
 8001098:	4b13      	ldr	r3, [pc, #76]	; (80010e8 <USART6_IRQHandler+0x54>)
 800109a:	681b      	ldr	r3, [r3, #0]
 800109c:	f003 0320 	and.w	r3, r3, #32
 80010a0:	2b00      	cmp	r3, #0
 80010a2:	d016      	beq.n	80010d2 <USART6_IRQHandler+0x3e>

		ReceptionStatus = ReceptionEnabled;
 80010a4:	4b11      	ldr	r3, [pc, #68]	; (80010ec <USART6_IRQHandler+0x58>)
 80010a6:	2264      	movs	r2, #100	; 0x64
 80010a8:	801a      	strh	r2, [r3, #0]
		MRTUcount = 0;
 80010aa:	4b11      	ldr	r3, [pc, #68]	; (80010f0 <USART6_IRQHandler+0x5c>)
 80010ac:	2200      	movs	r2, #0
 80010ae:	801a      	strh	r2, [r3, #0]

		ModbusData[CurrentItemOfBuf] = USART->DR;				// Помещаем содержимое регистра данных USART  буфер сообщения Modbus
 80010b0:	4b0d      	ldr	r3, [pc, #52]	; (80010e8 <USART6_IRQHandler+0x54>)
 80010b2:	6859      	ldr	r1, [r3, #4]
 80010b4:	4b0f      	ldr	r3, [pc, #60]	; (80010f4 <USART6_IRQHandler+0x60>)
 80010b6:	781b      	ldrb	r3, [r3, #0]
 80010b8:	461a      	mov	r2, r3
 80010ba:	b2c9      	uxtb	r1, r1
 80010bc:	4b0e      	ldr	r3, [pc, #56]	; (80010f8 <USART6_IRQHandler+0x64>)
 80010be:	5499      	strb	r1, [r3, r2]
		CurrentItemOfBuf++;										// Инкрементируем указатель на текущий элемент буфера
 80010c0:	4b0c      	ldr	r3, [pc, #48]	; (80010f4 <USART6_IRQHandler+0x60>)
 80010c2:	781b      	ldrb	r3, [r3, #0]
 80010c4:	3301      	adds	r3, #1
 80010c6:	b2da      	uxtb	r2, r3
 80010c8:	4b0a      	ldr	r3, [pc, #40]	; (80010f4 <USART6_IRQHandler+0x60>)
 80010ca:	701a      	strb	r2, [r3, #0]
		SendMessage(ModbusReciveSymbol);						// Активируем сообщение ModbusReciveSymbol
 80010cc:	2016      	movs	r0, #22
 80010ce:	f7ff fcc3 	bl	8000a58 <SendMessage>
	}

	if (USART->SR & USART_SR_ORE){
 80010d2:	4b05      	ldr	r3, [pc, #20]	; (80010e8 <USART6_IRQHandler+0x54>)
 80010d4:	681b      	ldr	r3, [r3, #0]
 80010d6:	f003 0308 	and.w	r3, r3, #8
 80010da:	2b00      	cmp	r3, #0
 80010dc:	d002      	beq.n	80010e4 <USART6_IRQHandler+0x50>
		state = 4;
 80010de:	4b07      	ldr	r3, [pc, #28]	; (80010fc <USART6_IRQHandler+0x68>)
 80010e0:	2204      	movs	r2, #4
 80010e2:	701a      	strb	r2, [r3, #0]
	}

}
 80010e4:	bf00      	nop
 80010e6:	bd80      	pop	{r7, pc}
 80010e8:	40011400 	.word	0x40011400
 80010ec:	200002dc 	.word	0x200002dc
 80010f0:	200002c4 	.word	0x200002c4
 80010f4:	200002c0 	.word	0x200002c0
 80010f8:	200001c0 	.word	0x200001c0
 80010fc:	200000b6 	.word	0x200000b6

08001100 <DMA2_Stream7_IRQHandler>:

void DMA2_Stream7_IRQHandler (void){
 8001100:	b480      	push	{r7}
 8001102:	af00      	add	r7, sp, #0

	if (DMA2->HISR & DMA_HISR_TCIF7){
 8001104:	4b09      	ldr	r3, [pc, #36]	; (800112c <DMA2_Stream7_IRQHandler+0x2c>)
 8001106:	685b      	ldr	r3, [r3, #4]
 8001108:	f003 6300 	and.w	r3, r3, #134217728	; 0x8000000
 800110c:	2b00      	cmp	r3, #0
 800110e:	d008      	beq.n	8001122 <DMA2_Stream7_IRQHandler+0x22>

		stateMessageGenSlave = 0;
 8001110:	4b07      	ldr	r3, [pc, #28]	; (8001130 <DMA2_Stream7_IRQHandler+0x30>)
 8001112:	2200      	movs	r2, #0
 8001114:	701a      	strb	r2, [r3, #0]

		DMA2->HIFCR |= DMA_HIFCR_CTCIF7;
 8001116:	4b05      	ldr	r3, [pc, #20]	; (800112c <DMA2_Stream7_IRQHandler+0x2c>)
 8001118:	68db      	ldr	r3, [r3, #12]
 800111a:	4a04      	ldr	r2, [pc, #16]	; (800112c <DMA2_Stream7_IRQHandler+0x2c>)
 800111c:	f043 6300 	orr.w	r3, r3, #134217728	; 0x8000000
 8001120:	60d3      	str	r3, [r2, #12]

	}

}
 8001122:	bf00      	nop
 8001124:	46bd      	mov	sp, r7
 8001126:	bc80      	pop	{r7}
 8001128:	4770      	bx	lr
 800112a:	bf00      	nop
 800112c:	40026400 	.word	0x40026400
 8001130:	200000b7 	.word	0x200000b7

08001134 <WriteSingleCoil>:

/*************************	 Modbus Function (Modbus функции)	*************************/


/* Запись состояния одного выхода (Код функции 0x05) */
void WriteSingleCoil (void){
 8001134:	b480      	push	{r7}
 8001136:	b083      	sub	sp, #12
 8001138:	af00      	add	r7, sp, #0

	if (ModbusData[3] == 0x50){
 800113a:	4b27      	ldr	r3, [pc, #156]	; (80011d8 <WriteSingleCoil+0xa4>)
 800113c:	78db      	ldrb	r3, [r3, #3]
 800113e:	2b50      	cmp	r3, #80	; 0x50
 8001140:	d145      	bne.n	80011ce <WriteSingleCoil+0x9a>

		if (ModbusData[4] == 0xff && ModbusData[5] == 0x00){
 8001142:	4b25      	ldr	r3, [pc, #148]	; (80011d8 <WriteSingleCoil+0xa4>)
 8001144:	791b      	ldrb	r3, [r3, #4]
 8001146:	2bff      	cmp	r3, #255	; 0xff
 8001148:	d11e      	bne.n	8001188 <WriteSingleCoil+0x54>
 800114a:	4b23      	ldr	r3, [pc, #140]	; (80011d8 <WriteSingleCoil+0xa4>)
 800114c:	795b      	ldrb	r3, [r3, #5]
 800114e:	2b00      	cmp	r3, #0
 8001150:	d11a      	bne.n	8001188 <WriteSingleCoil+0x54>

			GPIOC->BSRR |= GPIO_BSRR_BS14;
 8001152:	4b22      	ldr	r3, [pc, #136]	; (80011dc <WriteSingleCoil+0xa8>)
 8001154:	699b      	ldr	r3, [r3, #24]
 8001156:	4a21      	ldr	r2, [pc, #132]	; (80011dc <WriteSingleCoil+0xa8>)
 8001158:	f443 4380 	orr.w	r3, r3, #16384	; 0x4000
 800115c:	6193      	str	r3, [r2, #24]

			for (uint8_t i = 0; i < _CurrentItemOfBuf - 2; i++){
 800115e:	2300      	movs	r3, #0
 8001160:	71fb      	strb	r3, [r7, #7]
 8001162:	e008      	b.n	8001176 <WriteSingleCoil+0x42>
				ModbusSendData[i] = ModbusData[i];
 8001164:	79fa      	ldrb	r2, [r7, #7]
 8001166:	79fb      	ldrb	r3, [r7, #7]
 8001168:	491b      	ldr	r1, [pc, #108]	; (80011d8 <WriteSingleCoil+0xa4>)
 800116a:	5c89      	ldrb	r1, [r1, r2]
 800116c:	4a1c      	ldr	r2, [pc, #112]	; (80011e0 <WriteSingleCoil+0xac>)
 800116e:	54d1      	strb	r1, [r2, r3]
			for (uint8_t i = 0; i < _CurrentItemOfBuf - 2; i++){
 8001170:	79fb      	ldrb	r3, [r7, #7]
 8001172:	3301      	adds	r3, #1
 8001174:	71fb      	strb	r3, [r7, #7]
 8001176:	79fa      	ldrb	r2, [r7, #7]
 8001178:	4b1a      	ldr	r3, [pc, #104]	; (80011e4 <WriteSingleCoil+0xb0>)
 800117a:	781b      	ldrb	r3, [r3, #0]
 800117c:	3b02      	subs	r3, #2
 800117e:	429a      	cmp	r2, r3
 8001180:	dbf0      	blt.n	8001164 <WriteSingleCoil+0x30>
			}
				stateMessageGenSlave = 2;
 8001182:	4b19      	ldr	r3, [pc, #100]	; (80011e8 <WriteSingleCoil+0xb4>)
 8001184:	2202      	movs	r2, #2
 8001186:	701a      	strb	r2, [r3, #0]
			}

			if (ModbusData[4] == 0x00 && ModbusData[5] == 0xff){
 8001188:	4b13      	ldr	r3, [pc, #76]	; (80011d8 <WriteSingleCoil+0xa4>)
 800118a:	791b      	ldrb	r3, [r3, #4]
 800118c:	2b00      	cmp	r3, #0
 800118e:	d11e      	bne.n	80011ce <WriteSingleCoil+0x9a>
 8001190:	4b11      	ldr	r3, [pc, #68]	; (80011d8 <WriteSingleCoil+0xa4>)
 8001192:	795b      	ldrb	r3, [r3, #5]
 8001194:	2bff      	cmp	r3, #255	; 0xff
 8001196:	d11a      	bne.n	80011ce <WriteSingleCoil+0x9a>

			GPIOC->BSRR |= GPIO_BSRR_BR14;
 8001198:	4b10      	ldr	r3, [pc, #64]	; (80011dc <WriteSingleCoil+0xa8>)
 800119a:	699b      	ldr	r3, [r3, #24]
 800119c:	4a0f      	ldr	r2, [pc, #60]	; (80011dc <WriteSingleCoil+0xa8>)
 800119e:	f043 4380 	orr.w	r3, r3, #1073741824	; 0x40000000
 80011a2:	6193      	str	r3, [r2, #24]

			for (uint8_t i = 0; i < _CurrentItemOfBuf - 2; i++){
 80011a4:	2300      	movs	r3, #0
 80011a6:	71bb      	strb	r3, [r7, #6]
 80011a8:	e008      	b.n	80011bc <WriteSingleCoil+0x88>
				ModbusSendData[i] = ModbusData[i];
 80011aa:	79ba      	ldrb	r2, [r7, #6]
 80011ac:	79bb      	ldrb	r3, [r7, #6]
 80011ae:	490a      	ldr	r1, [pc, #40]	; (80011d8 <WriteSingleCoil+0xa4>)
 80011b0:	5c89      	ldrb	r1, [r1, r2]
 80011b2:	4a0b      	ldr	r2, [pc, #44]	; (80011e0 <WriteSingleCoil+0xac>)
 80011b4:	54d1      	strb	r1, [r2, r3]
			for (uint8_t i = 0; i < _CurrentItemOfBuf - 2; i++){
 80011b6:	79bb      	ldrb	r3, [r7, #6]
 80011b8:	3301      	adds	r3, #1
 80011ba:	71bb      	strb	r3, [r7, #6]
 80011bc:	79ba      	ldrb	r2, [r7, #6]
 80011be:	4b09      	ldr	r3, [pc, #36]	; (80011e4 <WriteSingleCoil+0xb0>)
 80011c0:	781b      	ldrb	r3, [r3, #0]
 80011c2:	3b02      	subs	r3, #2
 80011c4:	429a      	cmp	r2, r3
 80011c6:	dbf0      	blt.n	80011aa <WriteSingleCoil+0x76>
			}
				stateMessageGenSlave = 2;
 80011c8:	4b07      	ldr	r3, [pc, #28]	; (80011e8 <WriteSingleCoil+0xb4>)
 80011ca:	2202      	movs	r2, #2
 80011cc:	701a      	strb	r2, [r3, #0]
			}

	}

}
 80011ce:	bf00      	nop
 80011d0:	370c      	adds	r7, #12
 80011d2:	46bd      	mov	sp, r7
 80011d4:	bc80      	pop	{r7}
 80011d6:	4770      	bx	lr
 80011d8:	200001c0 	.word	0x200001c0
 80011dc:	40020800 	.word	0x40020800
 80011e0:	200000bc 	.word	0x200000bc
 80011e4:	200000b8 	.word	0x200000b8
 80011e8:	200000b7 	.word	0x200000b7

080011ec <__NVIC_SetPriorityGrouping>:
           In case of a conflict between priority grouping and available
           priority bits (__NVIC_PRIO_BITS), the smallest possible priority group is set.
  \param [in]      PriorityGroup  Priority grouping field.
 */
__STATIC_INLINE void __NVIC_SetPriorityGrouping(uint32_t PriorityGroup)
{
 80011ec:	b480      	push	{r7}
 80011ee:	b085      	sub	sp, #20
 80011f0:	af00      	add	r7, sp, #0
 80011f2:	6078      	str	r0, [r7, #4]
  uint32_t reg_value;
  uint32_t PriorityGroupTmp = (PriorityGroup & (uint32_t)0x07UL);             /* only values 0..7 are used          */
 80011f4:	687b      	ldr	r3, [r7, #4]
 80011f6:	f003 0307 	and.w	r3, r3, #7
 80011fa:	60fb      	str	r3, [r7, #12]

  reg_value  =  SCB->AIRCR;                                                   /* read old register configuration    */
 80011fc:	4b0c      	ldr	r3, [pc, #48]	; (8001230 <__NVIC_SetPriorityGrouping+0x44>)
 80011fe:	68db      	ldr	r3, [r3, #12]
 8001200:	60bb      	str	r3, [r7, #8]
  reg_value &= ~((uint32_t)(SCB_AIRCR_VECTKEY_Msk | SCB_AIRCR_PRIGROUP_Msk)); /* clear bits to change               */
 8001202:	68ba      	ldr	r2, [r7, #8]
 8001204:	f64f 03ff 	movw	r3, #63743	; 0xf8ff
 8001208:	4013      	ands	r3, r2
 800120a:	60bb      	str	r3, [r7, #8]
  reg_value  =  (reg_value                                   |
                ((uint32_t)0x5FAUL << SCB_AIRCR_VECTKEY_Pos) |
                (PriorityGroupTmp << SCB_AIRCR_PRIGROUP_Pos)  );              /* Insert write key and priority group */
 800120c:	68fb      	ldr	r3, [r7, #12]
 800120e:	021a      	lsls	r2, r3, #8
                ((uint32_t)0x5FAUL << SCB_AIRCR_VECTKEY_Pos) |
 8001210:	68bb      	ldr	r3, [r7, #8]
 8001212:	4313      	orrs	r3, r2
  reg_value  =  (reg_value                                   |
 8001214:	f043 63bf 	orr.w	r3, r3, #100139008	; 0x5f80000
 8001218:	f443 3300 	orr.w	r3, r3, #131072	; 0x20000
 800121c:	60bb      	str	r3, [r7, #8]
  SCB->AIRCR =  reg_value;
 800121e:	4a04      	ldr	r2, [pc, #16]	; (8001230 <__NVIC_SetPriorityGrouping+0x44>)
 8001220:	68bb      	ldr	r3, [r7, #8]
 8001222:	60d3      	str	r3, [r2, #12]
}
 8001224:	bf00      	nop
 8001226:	3714      	adds	r7, #20
 8001228:	46bd      	mov	sp, r7
 800122a:	bc80      	pop	{r7}
 800122c:	4770      	bx	lr
 800122e:	bf00      	nop
 8001230:	e000ed00 	.word	0xe000ed00

08001234 <__NVIC_EnableIRQ>:
  \details Enables a device specific interrupt in the NVIC interrupt controller.
  \param [in]      IRQn  Device specific interrupt number.
  \note    IRQn must not be negative.
 */
__STATIC_INLINE void __NVIC_EnableIRQ(IRQn_Type IRQn)
{
 8001234:	b480      	push	{r7}
 8001236:	b083      	sub	sp, #12
 8001238:	af00      	add	r7, sp, #0
 800123a:	4603      	mov	r3, r0
 800123c:	71fb      	strb	r3, [r7, #7]
  if ((int32_t)(IRQn) >= 0)
 800123e:	f997 3007 	ldrsb.w	r3, [r7, #7]
 8001242:	2b00      	cmp	r3, #0
 8001244:	db0b      	blt.n	800125e <__NVIC_EnableIRQ+0x2a>
  {
    NVIC->ISER[(((uint32_t)IRQn) >> 5UL)] = (uint32_t)(1UL << (((uint32_t)IRQn) & 0x1FUL));
 8001246:	79fb      	ldrb	r3, [r7, #7]
 8001248:	f003 021f 	and.w	r2, r3, #31
 800124c:	4906      	ldr	r1, [pc, #24]	; (8001268 <__NVIC_EnableIRQ+0x34>)
 800124e:	f997 3007 	ldrsb.w	r3, [r7, #7]
 8001252:	095b      	lsrs	r3, r3, #5
 8001254:	2001      	movs	r0, #1
 8001256:	fa00 f202 	lsl.w	r2, r0, r2
 800125a:	f841 2023 	str.w	r2, [r1, r3, lsl #2]
  }
}
 800125e:	bf00      	nop
 8001260:	370c      	adds	r7, #12
 8001262:	46bd      	mov	sp, r7
 8001264:	bc80      	pop	{r7}
 8001266:	4770      	bx	lr
 8001268:	e000e100 	.word	0xe000e100

0800126c <__NVIC_SetPriority>:
  \param [in]      IRQn  Interrupt number.
  \param [in]  priority  Priority to set.
  \note    The priority cannot be set for every processor exception.
 */
__STATIC_INLINE void __NVIC_SetPriority(IRQn_Type IRQn, uint32_t priority)
{
 800126c:	b480      	push	{r7}
 800126e:	b083      	sub	sp, #12
 8001270:	af00      	add	r7, sp, #0
 8001272:	4603      	mov	r3, r0
 8001274:	6039      	str	r1, [r7, #0]
 8001276:	71fb      	strb	r3, [r7, #7]
  if ((int32_t)(IRQn) >= 0)
 8001278:	f997 3007 	ldrsb.w	r3, [r7, #7]
 800127c:	2b00      	cmp	r3, #0
 800127e:	db0a      	blt.n	8001296 <__NVIC_SetPriority+0x2a>
  {
    NVIC->IP[((uint32_t)IRQn)]               = (uint8_t)((priority << (8U - __NVIC_PRIO_BITS)) & (uint32_t)0xFFUL);
 8001280:	683b      	ldr	r3, [r7, #0]
 8001282:	b2da      	uxtb	r2, r3
 8001284:	490c      	ldr	r1, [pc, #48]	; (80012b8 <__NVIC_SetPriority+0x4c>)
 8001286:	f997 3007 	ldrsb.w	r3, [r7, #7]
 800128a:	0112      	lsls	r2, r2, #4
 800128c:	b2d2      	uxtb	r2, r2
 800128e:	440b      	add	r3, r1
 8001290:	f883 2300 	strb.w	r2, [r3, #768]	; 0x300
  }
  else
  {
    SCB->SHP[(((uint32_t)IRQn) & 0xFUL)-4UL] = (uint8_t)((priority << (8U - __NVIC_PRIO_BITS)) & (uint32_t)0xFFUL);
  }
}
 8001294:	e00a      	b.n	80012ac <__NVIC_SetPriority+0x40>
    SCB->SHP[(((uint32_t)IRQn) & 0xFUL)-4UL] = (uint8_t)((priority << (8U - __NVIC_PRIO_BITS)) & (uint32_t)0xFFUL);
 8001296:	683b      	ldr	r3, [r7, #0]
 8001298:	b2da      	uxtb	r2, r3
 800129a:	4908      	ldr	r1, [pc, #32]	; (80012bc <__NVIC_SetPriority+0x50>)
 800129c:	79fb      	ldrb	r3, [r7, #7]
 800129e:	f003 030f 	and.w	r3, r3, #15
 80012a2:	3b04      	subs	r3, #4
 80012a4:	0112      	lsls	r2, r2, #4
 80012a6:	b2d2      	uxtb	r2, r2
 80012a8:	440b      	add	r3, r1
 80012aa:	761a      	strb	r2, [r3, #24]
}
 80012ac:	bf00      	nop
 80012ae:	370c      	adds	r7, #12
 80012b0:	46bd      	mov	sp, r7
 80012b2:	bc80      	pop	{r7}
 80012b4:	4770      	bx	lr
 80012b6:	bf00      	nop
 80012b8:	e000e100 	.word	0xe000e100
 80012bc:	e000ed00 	.word	0xe000ed00

080012c0 <NVIC_EncodePriority>:
  \param [in]   PreemptPriority  Preemptive priority value (starting from 0).
  \param [in]       SubPriority  Subpriority value (starting from 0).
  \return                        Encoded priority. Value can be used in the function \ref NVIC_SetPriority().
 */
__STATIC_INLINE uint32_t NVIC_EncodePriority (uint32_t PriorityGroup, uint32_t PreemptPriority, uint32_t SubPriority)
{
 80012c0:	b480      	push	{r7}
 80012c2:	b089      	sub	sp, #36	; 0x24
 80012c4:	af00      	add	r7, sp, #0
 80012c6:	60f8      	str	r0, [r7, #12]
 80012c8:	60b9      	str	r1, [r7, #8]
 80012ca:	607a      	str	r2, [r7, #4]
  uint32_t PriorityGroupTmp = (PriorityGroup & (uint32_t)0x07UL);   /* only values 0..7 are used          */
 80012cc:	68fb      	ldr	r3, [r7, #12]
 80012ce:	f003 0307 	and.w	r3, r3, #7
 80012d2:	61fb      	str	r3, [r7, #28]
  uint32_t PreemptPriorityBits;
  uint32_t SubPriorityBits;

  PreemptPriorityBits = ((7UL - PriorityGroupTmp) > (uint32_t)(__NVIC_PRIO_BITS)) ? (uint32_t)(__NVIC_PRIO_BITS) : (uint32_t)(7UL - PriorityGroupTmp);
 80012d4:	69fb      	ldr	r3, [r7, #28]
 80012d6:	f1c3 0307 	rsb	r3, r3, #7
 80012da:	2b04      	cmp	r3, #4
 80012dc:	bf28      	it	cs
 80012de:	2304      	movcs	r3, #4
 80012e0:	61bb      	str	r3, [r7, #24]
  SubPriorityBits     = ((PriorityGroupTmp + (uint32_t)(__NVIC_PRIO_BITS)) < (uint32_t)7UL) ? (uint32_t)0UL : (uint32_t)((PriorityGroupTmp - 7UL) + (uint32_t)(__NVIC_PRIO_BITS));
 80012e2:	69fb      	ldr	r3, [r7, #28]
 80012e4:	3304      	adds	r3, #4
 80012e6:	2b06      	cmp	r3, #6
 80012e8:	d902      	bls.n	80012f0 <NVIC_EncodePriority+0x30>
 80012ea:	69fb      	ldr	r3, [r7, #28]
 80012ec:	3b03      	subs	r3, #3
 80012ee:	e000      	b.n	80012f2 <NVIC_EncodePriority+0x32>
 80012f0:	2300      	movs	r3, #0
 80012f2:	617b      	str	r3, [r7, #20]

  return (
           ((PreemptPriority & (uint32_t)((1UL << (PreemptPriorityBits)) - 1UL)) << SubPriorityBits) |
 80012f4:	f04f 32ff 	mov.w	r2, #4294967295
 80012f8:	69bb      	ldr	r3, [r7, #24]
 80012fa:	fa02 f303 	lsl.w	r3, r2, r3
 80012fe:	43da      	mvns	r2, r3
 8001300:	68bb      	ldr	r3, [r7, #8]
 8001302:	401a      	ands	r2, r3
 8001304:	697b      	ldr	r3, [r7, #20]
 8001306:	409a      	lsls	r2, r3
           ((SubPriority     & (uint32_t)((1UL << (SubPriorityBits    )) - 1UL)))
 8001308:	f04f 31ff 	mov.w	r1, #4294967295
 800130c:	697b      	ldr	r3, [r7, #20]
 800130e:	fa01 f303 	lsl.w	r3, r1, r3
 8001312:	43d9      	mvns	r1, r3
 8001314:	687b      	ldr	r3, [r7, #4]
 8001316:	400b      	ands	r3, r1
           ((PreemptPriority & (uint32_t)((1UL << (PreemptPriorityBits)) - 1UL)) << SubPriorityBits) |
 8001318:	4313      	orrs	r3, r2
         );
}
 800131a:	4618      	mov	r0, r3
 800131c:	3724      	adds	r7, #36	; 0x24
 800131e:	46bd      	mov	sp, r7
 8001320:	bc80      	pop	{r7}
 8001322:	4770      	bx	lr

08001324 <InitRCC>:



/*************************	 Code	*************************/

void InitRCC (void){
 8001324:	b580      	push	{r7, lr}
 8001326:	af00      	add	r7, sp, #0

	/*Функция настройки тактовой частоты системной шины процессора на 96 MHz*/

	FLASH->ACR &= ~FLASH_ACR_LATENCY;
 8001328:	4b4e      	ldr	r3, [pc, #312]	; (8001464 <InitRCC+0x140>)
 800132a:	681b      	ldr	r3, [r3, #0]
 800132c:	4a4d      	ldr	r2, [pc, #308]	; (8001464 <InitRCC+0x140>)
 800132e:	f023 030f 	bic.w	r3, r3, #15
 8001332:	6013      	str	r3, [r2, #0]
	FLASH->ACR |= FLASH_ACR_LATENCY_3WS;					// Настройка задержки чтения флеш памяти в зависимости от частоты МК
 8001334:	4b4b      	ldr	r3, [pc, #300]	; (8001464 <InitRCC+0x140>)
 8001336:	681b      	ldr	r3, [r3, #0]
 8001338:	4a4a      	ldr	r2, [pc, #296]	; (8001464 <InitRCC+0x140>)
 800133a:	f043 0303 	orr.w	r3, r3, #3
 800133e:	6013      	str	r3, [r2, #0]

	PWR->CR |= PWR_CR_VOS;									// Настройка внутреннего регулятора напряжения на режим 1 (Scale 1)
 8001340:	4b49      	ldr	r3, [pc, #292]	; (8001468 <InitRCC+0x144>)
 8001342:	681b      	ldr	r3, [r3, #0]
 8001344:	4a48      	ldr	r2, [pc, #288]	; (8001468 <InitRCC+0x144>)
 8001346:	f443 4340 	orr.w	r3, r3, #49152	; 0xc000
 800134a:	6013      	str	r3, [r2, #0]

	RCC->CR |= RCC_CR_HSEON;								// Включение HSE
 800134c:	4b47      	ldr	r3, [pc, #284]	; (800146c <InitRCC+0x148>)
 800134e:	681b      	ldr	r3, [r3, #0]
 8001350:	4a46      	ldr	r2, [pc, #280]	; (800146c <InitRCC+0x148>)
 8001352:	f443 3380 	orr.w	r3, r3, #65536	; 0x10000
 8001356:	6013      	str	r3, [r2, #0]

	while(!(RCC->CR & RCC_CR_HSERDY));						// Ожидание готовности HSE
 8001358:	bf00      	nop
 800135a:	4b44      	ldr	r3, [pc, #272]	; (800146c <InitRCC+0x148>)
 800135c:	681b      	ldr	r3, [r3, #0]
 800135e:	f403 3300 	and.w	r3, r3, #131072	; 0x20000
 8001362:	2b00      	cmp	r3, #0
 8001364:	d0f9      	beq.n	800135a <InitRCC+0x36>

	RCC->PLLCFGR |= RCC_PLLCFGR_PLLSRC_HSE;					// Выбор генератора HSE в качестве источника тактирования PLL
 8001366:	4b41      	ldr	r3, [pc, #260]	; (800146c <InitRCC+0x148>)
 8001368:	685b      	ldr	r3, [r3, #4]
 800136a:	4a40      	ldr	r2, [pc, #256]	; (800146c <InitRCC+0x148>)
 800136c:	f443 0380 	orr.w	r3, r3, #4194304	; 0x400000
 8001370:	6053      	str	r3, [r2, #4]

	RCC->PLLCFGR &= ~RCC_PLLCFGR_PLLM;						// Обнуляем регистр делителя PLL
 8001372:	4b3e      	ldr	r3, [pc, #248]	; (800146c <InitRCC+0x148>)
 8001374:	685b      	ldr	r3, [r3, #4]
 8001376:	4a3d      	ldr	r2, [pc, #244]	; (800146c <InitRCC+0x148>)
 8001378:	f023 033f 	bic.w	r3, r3, #63	; 0x3f
 800137c:	6053      	str	r3, [r2, #4]
	RCC->PLLCFGR |= RCC_PLLCFGR_PLLM_0;						// Значение делителя PLL равно 25 (PLLM = 25)
 800137e:	4b3b      	ldr	r3, [pc, #236]	; (800146c <InitRCC+0x148>)
 8001380:	685b      	ldr	r3, [r3, #4]
 8001382:	4a3a      	ldr	r2, [pc, #232]	; (800146c <InitRCC+0x148>)
 8001384:	f043 0301 	orr.w	r3, r3, #1
 8001388:	6053      	str	r3, [r2, #4]
	RCC->PLLCFGR |= RCC_PLLCFGR_PLLM_3;
 800138a:	4b38      	ldr	r3, [pc, #224]	; (800146c <InitRCC+0x148>)
 800138c:	685b      	ldr	r3, [r3, #4]
 800138e:	4a37      	ldr	r2, [pc, #220]	; (800146c <InitRCC+0x148>)
 8001390:	f043 0308 	orr.w	r3, r3, #8
 8001394:	6053      	str	r3, [r2, #4]
	RCC->PLLCFGR |= RCC_PLLCFGR_PLLM_4;
 8001396:	4b35      	ldr	r3, [pc, #212]	; (800146c <InitRCC+0x148>)
 8001398:	685b      	ldr	r3, [r3, #4]
 800139a:	4a34      	ldr	r2, [pc, #208]	; (800146c <InitRCC+0x148>)
 800139c:	f043 0310 	orr.w	r3, r3, #16
 80013a0:	6053      	str	r3, [r2, #4]

	RCC->PLLCFGR &= ~RCC_PLLCFGR_PLLN;						// Обнуляем регистр множителя PLL
 80013a2:	4b32      	ldr	r3, [pc, #200]	; (800146c <InitRCC+0x148>)
 80013a4:	685b      	ldr	r3, [r3, #4]
 80013a6:	4a31      	ldr	r2, [pc, #196]	; (800146c <InitRCC+0x148>)
 80013a8:	f423 43ff 	bic.w	r3, r3, #32640	; 0x7f80
 80013ac:	f023 0340 	bic.w	r3, r3, #64	; 0x40
 80013b0:	6053      	str	r3, [r2, #4]
	RCC->PLLCFGR |= RCC_PLLCFGR_PLLN_6;						// Значение множителя PLL равно 192
 80013b2:	4b2e      	ldr	r3, [pc, #184]	; (800146c <InitRCC+0x148>)
 80013b4:	685b      	ldr	r3, [r3, #4]
 80013b6:	4a2d      	ldr	r2, [pc, #180]	; (800146c <InitRCC+0x148>)
 80013b8:	f443 5380 	orr.w	r3, r3, #4096	; 0x1000
 80013bc:	6053      	str	r3, [r2, #4]
	RCC->PLLCFGR |= RCC_PLLCFGR_PLLN_7;
 80013be:	4b2b      	ldr	r3, [pc, #172]	; (800146c <InitRCC+0x148>)
 80013c0:	685b      	ldr	r3, [r3, #4]
 80013c2:	4a2a      	ldr	r2, [pc, #168]	; (800146c <InitRCC+0x148>)
 80013c4:	f443 5300 	orr.w	r3, r3, #8192	; 0x2000
 80013c8:	6053      	str	r3, [r2, #4]

	RCC->PLLCFGR &= ~RCC_PLLCFGR_PLLP;						// Обнуляем регист делителя на выходе PLL, значение делителя на выходе равно 2
 80013ca:	4b28      	ldr	r3, [pc, #160]	; (800146c <InitRCC+0x148>)
 80013cc:	685b      	ldr	r3, [r3, #4]
 80013ce:	4a27      	ldr	r2, [pc, #156]	; (800146c <InitRCC+0x148>)
 80013d0:	f423 3340 	bic.w	r3, r3, #196608	; 0x30000
 80013d4:	6053      	str	r3, [r2, #4]

	RCC->CR |= RCC_CR_PLLON;								// Включаем модуль PLL
 80013d6:	4b25      	ldr	r3, [pc, #148]	; (800146c <InitRCC+0x148>)
 80013d8:	681b      	ldr	r3, [r3, #0]
 80013da:	4a24      	ldr	r2, [pc, #144]	; (800146c <InitRCC+0x148>)
 80013dc:	f043 7380 	orr.w	r3, r3, #16777216	; 0x1000000
 80013e0:	6013      	str	r3, [r2, #0]

	while ((RCC->CR & RCC_CR_PLLRDY) == 0);					// Ожидание готовности модуля PLL
 80013e2:	bf00      	nop
 80013e4:	4b21      	ldr	r3, [pc, #132]	; (800146c <InitRCC+0x148>)
 80013e6:	681b      	ldr	r3, [r3, #0]
 80013e8:	f003 7300 	and.w	r3, r3, #33554432	; 0x2000000
 80013ec:	2b00      	cmp	r3, #0
 80013ee:	d0f9      	beq.n	80013e4 <InitRCC+0xc0>

	RCC->CFGR &= ~RCC_CFGR_HPRE;							// Частота шины AHB = 96 MHz
 80013f0:	4b1e      	ldr	r3, [pc, #120]	; (800146c <InitRCC+0x148>)
 80013f2:	689b      	ldr	r3, [r3, #8]
 80013f4:	4a1d      	ldr	r2, [pc, #116]	; (800146c <InitRCC+0x148>)
 80013f6:	f023 03f0 	bic.w	r3, r3, #240	; 0xf0
 80013fa:	6093      	str	r3, [r2, #8]

	RCC->CFGR &= ~RCC_CFGR_PPRE1;
 80013fc:	4b1b      	ldr	r3, [pc, #108]	; (800146c <InitRCC+0x148>)
 80013fe:	689b      	ldr	r3, [r3, #8]
 8001400:	4a1a      	ldr	r2, [pc, #104]	; (800146c <InitRCC+0x148>)
 8001402:	f423 53e0 	bic.w	r3, r3, #7168	; 0x1c00
 8001406:	6093      	str	r3, [r2, #8]
	RCC->CFGR |= RCC_CFGR_PPRE1_DIV2;						// Частота шины APB1 = 48 MHz
 8001408:	4b18      	ldr	r3, [pc, #96]	; (800146c <InitRCC+0x148>)
 800140a:	689b      	ldr	r3, [r3, #8]
 800140c:	4a17      	ldr	r2, [pc, #92]	; (800146c <InitRCC+0x148>)
 800140e:	f443 5380 	orr.w	r3, r3, #4096	; 0x1000
 8001412:	6093      	str	r3, [r2, #8]

	RCC->CFGR &= ~RCC_CFGR_PPRE2;
 8001414:	4b15      	ldr	r3, [pc, #84]	; (800146c <InitRCC+0x148>)
 8001416:	689b      	ldr	r3, [r3, #8]
 8001418:	4a14      	ldr	r2, [pc, #80]	; (800146c <InitRCC+0x148>)
 800141a:	f423 4360 	bic.w	r3, r3, #57344	; 0xe000
 800141e:	6093      	str	r3, [r2, #8]
	RCC->CFGR |= RCC_CFGR_PPRE2_DIV1;						// Частота шины APB2 = 96 MHz
 8001420:	4b12      	ldr	r3, [pc, #72]	; (800146c <InitRCC+0x148>)
 8001422:	4a12      	ldr	r2, [pc, #72]	; (800146c <InitRCC+0x148>)
 8001424:	689b      	ldr	r3, [r3, #8]
 8001426:	6093      	str	r3, [r2, #8]

	RCC->CFGR &= ~RCC_CFGR_SW;								// Обнуляем регистр выбора источника тактирования системной шины
 8001428:	4b10      	ldr	r3, [pc, #64]	; (800146c <InitRCC+0x148>)
 800142a:	689b      	ldr	r3, [r3, #8]
 800142c:	4a0f      	ldr	r2, [pc, #60]	; (800146c <InitRCC+0x148>)
 800142e:	f023 0303 	bic.w	r3, r3, #3
 8001432:	6093      	str	r3, [r2, #8]
	RCC->CFGR |= RCC_CFGR_SW_PLL;							// Выбираем в качестве источника тактирования системной шины PLL
 8001434:	4b0d      	ldr	r3, [pc, #52]	; (800146c <InitRCC+0x148>)
 8001436:	689b      	ldr	r3, [r3, #8]
 8001438:	4a0c      	ldr	r2, [pc, #48]	; (800146c <InitRCC+0x148>)
 800143a:	f043 0302 	orr.w	r3, r3, #2
 800143e:	6093      	str	r3, [r2, #8]

	while ((RCC->CFGR & RCC_CFGR_SWS) != RCC_CFGR_SWS_PLL);	// Ожидание установки модуля PLL в качестве источника частоты сист. шины
 8001440:	bf00      	nop
 8001442:	4b0a      	ldr	r3, [pc, #40]	; (800146c <InitRCC+0x148>)
 8001444:	689b      	ldr	r3, [r3, #8]
 8001446:	f003 030c 	and.w	r3, r3, #12
 800144a:	2b08      	cmp	r3, #8
 800144c:	d1f9      	bne.n	8001442 <InitRCC+0x11e>

	RCC->APB1ENR |= RCC_APB1ENR_PWREN;						// Вкдючение тактирования Power interface
 800144e:	4b07      	ldr	r3, [pc, #28]	; (800146c <InitRCC+0x148>)
 8001450:	6c1b      	ldr	r3, [r3, #64]	; 0x40
 8001452:	4a06      	ldr	r2, [pc, #24]	; (800146c <InitRCC+0x148>)
 8001454:	f043 5380 	orr.w	r3, r3, #268435456	; 0x10000000
 8001458:	6413      	str	r3, [r2, #64]	; 0x40

	SystemCoreClockUpdate();
 800145a:	f7fe feeb 	bl	8000234 <SystemCoreClockUpdate>

}
 800145e:	bf00      	nop
 8001460:	bd80      	pop	{r7, pc}
 8001462:	bf00      	nop
 8001464:	40023c00 	.word	0x40023c00
 8001468:	40007000 	.word	0x40007000
 800146c:	40023800 	.word	0x40023800

08001470 <UpdateNVICActiveAndPriority>:

void UpdateNVICActiveAndPriority (void){
 8001470:	b580      	push	{r7, lr}
 8001472:	af00      	add	r7, sp, #0

	__NVIC_SetPriorityGrouping(4);											// 16 групп прерываний и 16 подгрупп
 8001474:	2004      	movs	r0, #4
 8001476:	f7ff feb9 	bl	80011ec <__NVIC_SetPriorityGrouping>

	__NVIC_EnableIRQ(USART6_IRQn);											// Разрешаем прерывания от USART для Modbus
 800147a:	2047      	movs	r0, #71	; 0x47
 800147c:	f7ff feda 	bl	8001234 <__NVIC_EnableIRQ>
	__NVIC_EnableIRQ(TIM1_UP_TIM10_IRQn);									// Разрешаем прерывания от 10-го таймера
 8001480:	2019      	movs	r0, #25
 8001482:	f7ff fed7 	bl	8001234 <__NVIC_EnableIRQ>
	__NVIC_EnableIRQ(DMA2_Stream7_IRQn);									// Разрешаем прерывания от DMA обслуживающего USART Modbus
 8001486:	2046      	movs	r0, #70	; 0x46
 8001488:	f7ff fed4 	bl	8001234 <__NVIC_EnableIRQ>
	__NVIC_EnableIRQ(I2C1_EV_IRQn);											// Разрешаем прерывания событий I2C1
 800148c:	201f      	movs	r0, #31
 800148e:	f7ff fed1 	bl	8001234 <__NVIC_EnableIRQ>
	__NVIC_EnableIRQ(DMA1_Stream1_IRQn);									// Разрешаем прерывания от DMA1_Stream1, обслуживающего I2C1
 8001492:	200c      	movs	r0, #12
 8001494:	f7ff fece 	bl	8001234 <__NVIC_EnableIRQ>

	__NVIC_SetPriority(USART6_IRQn, NVIC_EncodePriority(1, 0, 2));			// Устанавливаем Modbus прерывание в первую группу, первым приоритетом
 8001498:	2202      	movs	r2, #2
 800149a:	2100      	movs	r1, #0
 800149c:	2001      	movs	r0, #1
 800149e:	f7ff ff0f 	bl	80012c0 <NVIC_EncodePriority>
 80014a2:	4603      	mov	r3, r0
 80014a4:	4619      	mov	r1, r3
 80014a6:	2047      	movs	r0, #71	; 0x47
 80014a8:	f7ff fee0 	bl	800126c <__NVIC_SetPriority>
	__NVIC_SetPriority(TIM1_UP_TIM10_IRQn, NVIC_EncodePriority(2, 1, 3));	// Прервания 10го таймера за прерыванием Modbus
 80014ac:	2203      	movs	r2, #3
 80014ae:	2101      	movs	r1, #1
 80014b0:	2002      	movs	r0, #2
 80014b2:	f7ff ff05 	bl	80012c0 <NVIC_EncodePriority>
 80014b6:	4603      	mov	r3, r0
 80014b8:	4619      	mov	r1, r3
 80014ba:	2019      	movs	r0, #25
 80014bc:	f7ff fed6 	bl	800126c <__NVIC_SetPriority>
	__NVIC_SetPriority(DMA2_Stream7_IRQn, NVIC_EncodePriority(1, 1, 3));
 80014c0:	2203      	movs	r2, #3
 80014c2:	2101      	movs	r1, #1
 80014c4:	2001      	movs	r0, #1
 80014c6:	f7ff fefb 	bl	80012c0 <NVIC_EncodePriority>
 80014ca:	4603      	mov	r3, r0
 80014cc:	4619      	mov	r1, r3
 80014ce:	2046      	movs	r0, #70	; 0x46
 80014d0:	f7ff fecc 	bl	800126c <__NVIC_SetPriority>
	__NVIC_SetPriority(DMA1_Stream1_IRQn, NVIC_EncodePriority(3, 0, 2));
 80014d4:	2202      	movs	r2, #2
 80014d6:	2100      	movs	r1, #0
 80014d8:	2003      	movs	r0, #3
 80014da:	f7ff fef1 	bl	80012c0 <NVIC_EncodePriority>
 80014de:	4603      	mov	r3, r0
 80014e0:	4619      	mov	r1, r3
 80014e2:	200c      	movs	r0, #12
 80014e4:	f7ff fec2 	bl	800126c <__NVIC_SetPriority>
	__NVIC_SetPriority(I2C1_EV_IRQn, NVIC_EncodePriority(3, 2, 3));
 80014e8:	2203      	movs	r2, #3
 80014ea:	2102      	movs	r1, #2
 80014ec:	2003      	movs	r0, #3
 80014ee:	f7ff fee7 	bl	80012c0 <NVIC_EncodePriority>
 80014f2:	4603      	mov	r3, r0
 80014f4:	4619      	mov	r1, r3
 80014f6:	201f      	movs	r0, #31
 80014f8:	f7ff feb8 	bl	800126c <__NVIC_SetPriority>

}
 80014fc:	bf00      	nop
 80014fe:	bd80      	pop	{r7, pc}

08001500 <InitGPIO>:

void InitGPIO (void){
 8001500:	b480      	push	{r7}
 8001502:	af00      	add	r7, sp, #0

	RCC->AHB1ENR |= RCC_AHB1ENR_GPIOCEN;					// Включение тактирования порта ввода-вывода C
 8001504:	4b40      	ldr	r3, [pc, #256]	; (8001608 <InitGPIO+0x108>)
 8001506:	6b1b      	ldr	r3, [r3, #48]	; 0x30
 8001508:	4a3f      	ldr	r2, [pc, #252]	; (8001608 <InitGPIO+0x108>)
 800150a:	f043 0304 	orr.w	r3, r3, #4
 800150e:	6313      	str	r3, [r2, #48]	; 0x30
	RCC->AHB1ENR |= RCC_AHB1ENR_GPIOBEN;					// Включение тактирования порта ввода-вывода B
 8001510:	4b3d      	ldr	r3, [pc, #244]	; (8001608 <InitGPIO+0x108>)
 8001512:	6b1b      	ldr	r3, [r3, #48]	; 0x30
 8001514:	4a3c      	ldr	r2, [pc, #240]	; (8001608 <InitGPIO+0x108>)
 8001516:	f043 0302 	orr.w	r3, r3, #2
 800151a:	6313      	str	r3, [r2, #48]	; 0x30
	RCC->AHB1ENR |= RCC_AHB1ENR_GPIOAEN;					// Включение тактирования порта ввода-вывода A
 800151c:	4b3a      	ldr	r3, [pc, #232]	; (8001608 <InitGPIO+0x108>)
 800151e:	6b1b      	ldr	r3, [r3, #48]	; 0x30
 8001520:	4a39      	ldr	r2, [pc, #228]	; (8001608 <InitGPIO+0x108>)
 8001522:	f043 0301 	orr.w	r3, r3, #1
 8001526:	6313      	str	r3, [r2, #48]	; 0x30

	GPIOC->OTYPER &= ~GPIO_OTYPER_OT13;						// Настройка порта PC13 на выход push-pull
 8001528:	4b38      	ldr	r3, [pc, #224]	; (800160c <InitGPIO+0x10c>)
 800152a:	685b      	ldr	r3, [r3, #4]
 800152c:	4a37      	ldr	r2, [pc, #220]	; (800160c <InitGPIO+0x10c>)
 800152e:	f423 5300 	bic.w	r3, r3, #8192	; 0x2000
 8001532:	6053      	str	r3, [r2, #4]
	GPIOC->OSPEEDR &= ~GPIO_OSPEEDER_OSPEEDR13;
 8001534:	4b35      	ldr	r3, [pc, #212]	; (800160c <InitGPIO+0x10c>)
 8001536:	689b      	ldr	r3, [r3, #8]
 8001538:	4a34      	ldr	r2, [pc, #208]	; (800160c <InitGPIO+0x10c>)
 800153a:	f023 6340 	bic.w	r3, r3, #201326592	; 0xc000000
 800153e:	6093      	str	r3, [r2, #8]
	GPIOC->OSPEEDR |= GPIO_OSPEEDER_OSPEEDR13;				// Настройка на высокую выходную скорость
 8001540:	4b32      	ldr	r3, [pc, #200]	; (800160c <InitGPIO+0x10c>)
 8001542:	689b      	ldr	r3, [r3, #8]
 8001544:	4a31      	ldr	r2, [pc, #196]	; (800160c <InitGPIO+0x10c>)
 8001546:	f043 6340 	orr.w	r3, r3, #201326592	; 0xc000000
 800154a:	6093      	str	r3, [r2, #8]
	GPIOC->PUPDR &= ~GPIO_PUPDR_PUPD13;						// No pull, no down (без подтяжки к плюсу или минусу питания)
 800154c:	4b2f      	ldr	r3, [pc, #188]	; (800160c <InitGPIO+0x10c>)
 800154e:	68db      	ldr	r3, [r3, #12]
 8001550:	4a2e      	ldr	r2, [pc, #184]	; (800160c <InitGPIO+0x10c>)
 8001552:	f023 6340 	bic.w	r3, r3, #201326592	; 0xc000000
 8001556:	60d3      	str	r3, [r2, #12]
	GPIOC->MODER &= ~GPIO_MODER_MODE13;
 8001558:	4b2c      	ldr	r3, [pc, #176]	; (800160c <InitGPIO+0x10c>)
 800155a:	681b      	ldr	r3, [r3, #0]
 800155c:	4a2b      	ldr	r2, [pc, #172]	; (800160c <InitGPIO+0x10c>)
 800155e:	f023 6340 	bic.w	r3, r3, #201326592	; 0xc000000
 8001562:	6013      	str	r3, [r2, #0]
	GPIOC->MODER |= GPIO_MODER_MODE13_0;					// Настройка порта PC13 на выход
 8001564:	4b29      	ldr	r3, [pc, #164]	; (800160c <InitGPIO+0x10c>)
 8001566:	681b      	ldr	r3, [r3, #0]
 8001568:	4a28      	ldr	r2, [pc, #160]	; (800160c <InitGPIO+0x10c>)
 800156a:	f043 6380 	orr.w	r3, r3, #67108864	; 0x4000000
 800156e:	6013      	str	r3, [r2, #0]

	GPIOC->OTYPER &= ~GPIO_OTYPER_OT14;						// Настройка порта PC14 на выход push-pull
 8001570:	4b26      	ldr	r3, [pc, #152]	; (800160c <InitGPIO+0x10c>)
 8001572:	685b      	ldr	r3, [r3, #4]
 8001574:	4a25      	ldr	r2, [pc, #148]	; (800160c <InitGPIO+0x10c>)
 8001576:	f423 4380 	bic.w	r3, r3, #16384	; 0x4000
 800157a:	6053      	str	r3, [r2, #4]
	GPIOC->OSPEEDR &= ~GPIO_OSPEEDER_OSPEEDR14;
 800157c:	4b23      	ldr	r3, [pc, #140]	; (800160c <InitGPIO+0x10c>)
 800157e:	689b      	ldr	r3, [r3, #8]
 8001580:	4a22      	ldr	r2, [pc, #136]	; (800160c <InitGPIO+0x10c>)
 8001582:	f023 5340 	bic.w	r3, r3, #805306368	; 0x30000000
 8001586:	6093      	str	r3, [r2, #8]
	GPIOC->OSPEEDR |= GPIO_OSPEEDER_OSPEEDR14;				// Настройка на высокую выходную скорость
 8001588:	4b20      	ldr	r3, [pc, #128]	; (800160c <InitGPIO+0x10c>)
 800158a:	689b      	ldr	r3, [r3, #8]
 800158c:	4a1f      	ldr	r2, [pc, #124]	; (800160c <InitGPIO+0x10c>)
 800158e:	f043 5340 	orr.w	r3, r3, #805306368	; 0x30000000
 8001592:	6093      	str	r3, [r2, #8]
	GPIOC->PUPDR &= ~GPIO_PUPDR_PUPD14;						// No pull, no down (без подтяжки к плюсу или минусу питания)
 8001594:	4b1d      	ldr	r3, [pc, #116]	; (800160c <InitGPIO+0x10c>)
 8001596:	68db      	ldr	r3, [r3, #12]
 8001598:	4a1c      	ldr	r2, [pc, #112]	; (800160c <InitGPIO+0x10c>)
 800159a:	f023 5340 	bic.w	r3, r3, #805306368	; 0x30000000
 800159e:	60d3      	str	r3, [r2, #12]
	GPIOC->MODER &= ~GPIO_MODER_MODE14;
 80015a0:	4b1a      	ldr	r3, [pc, #104]	; (800160c <InitGPIO+0x10c>)
 80015a2:	681b      	ldr	r3, [r3, #0]
 80015a4:	4a19      	ldr	r2, [pc, #100]	; (800160c <InitGPIO+0x10c>)
 80015a6:	f023 5340 	bic.w	r3, r3, #805306368	; 0x30000000
 80015aa:	6013      	str	r3, [r2, #0]
	GPIOC->MODER |= GPIO_MODER_MODE14_0;					// Настройка порта PC14 на выход
 80015ac:	4b17      	ldr	r3, [pc, #92]	; (800160c <InitGPIO+0x10c>)
 80015ae:	681b      	ldr	r3, [r3, #0]
 80015b0:	4a16      	ldr	r2, [pc, #88]	; (800160c <InitGPIO+0x10c>)
 80015b2:	f043 5380 	orr.w	r3, r3, #268435456	; 0x10000000
 80015b6:	6013      	str	r3, [r2, #0]

	GPIOC->OTYPER &= ~GPIO_OTYPER_OT15;						// Настройка порта PC15 на выход push-pull
 80015b8:	4b14      	ldr	r3, [pc, #80]	; (800160c <InitGPIO+0x10c>)
 80015ba:	685b      	ldr	r3, [r3, #4]
 80015bc:	4a13      	ldr	r2, [pc, #76]	; (800160c <InitGPIO+0x10c>)
 80015be:	f423 4300 	bic.w	r3, r3, #32768	; 0x8000
 80015c2:	6053      	str	r3, [r2, #4]
	GPIOC->OSPEEDR &= ~GPIO_OSPEEDER_OSPEEDR15;
 80015c4:	4b11      	ldr	r3, [pc, #68]	; (800160c <InitGPIO+0x10c>)
 80015c6:	689b      	ldr	r3, [r3, #8]
 80015c8:	4a10      	ldr	r2, [pc, #64]	; (800160c <InitGPIO+0x10c>)
 80015ca:	f023 4340 	bic.w	r3, r3, #3221225472	; 0xc0000000
 80015ce:	6093      	str	r3, [r2, #8]
	GPIOC->OSPEEDR |= GPIO_OSPEEDER_OSPEEDR15;				// Настройка на высокую выходную скорость
 80015d0:	4b0e      	ldr	r3, [pc, #56]	; (800160c <InitGPIO+0x10c>)
 80015d2:	689b      	ldr	r3, [r3, #8]
 80015d4:	4a0d      	ldr	r2, [pc, #52]	; (800160c <InitGPIO+0x10c>)
 80015d6:	f043 4340 	orr.w	r3, r3, #3221225472	; 0xc0000000
 80015da:	6093      	str	r3, [r2, #8]
	GPIOC->PUPDR &= ~GPIO_PUPDR_PUPD15;						// No pull, no down (без подтяжки к плюсу или минусу питания)
 80015dc:	4b0b      	ldr	r3, [pc, #44]	; (800160c <InitGPIO+0x10c>)
 80015de:	68db      	ldr	r3, [r3, #12]
 80015e0:	4a0a      	ldr	r2, [pc, #40]	; (800160c <InitGPIO+0x10c>)
 80015e2:	f023 4340 	bic.w	r3, r3, #3221225472	; 0xc0000000
 80015e6:	60d3      	str	r3, [r2, #12]
	GPIOC->MODER &= ~GPIO_MODER_MODE15;
 80015e8:	4b08      	ldr	r3, [pc, #32]	; (800160c <InitGPIO+0x10c>)
 80015ea:	681b      	ldr	r3, [r3, #0]
 80015ec:	4a07      	ldr	r2, [pc, #28]	; (800160c <InitGPIO+0x10c>)
 80015ee:	f023 4340 	bic.w	r3, r3, #3221225472	; 0xc0000000
 80015f2:	6013      	str	r3, [r2, #0]
	GPIOC->MODER |= GPIO_MODER_MODE15_0;					// Настройка порта PC15 на выход
 80015f4:	4b05      	ldr	r3, [pc, #20]	; (800160c <InitGPIO+0x10c>)
 80015f6:	681b      	ldr	r3, [r3, #0]
 80015f8:	4a04      	ldr	r2, [pc, #16]	; (800160c <InitGPIO+0x10c>)
 80015fa:	f043 4380 	orr.w	r3, r3, #1073741824	; 0x40000000
 80015fe:	6013      	str	r3, [r2, #0]
}
 8001600:	bf00      	nop
 8001602:	46bd      	mov	sp, r7
 8001604:	bc80      	pop	{r7}
 8001606:	4770      	bx	lr
 8001608:	40023800 	.word	0x40023800
 800160c:	40020800 	.word	0x40020800

08001610 <InitTIM10>:

/*************************	 Code	*************************/

/*************************	 Функции аппаратной инициализации таймера	*************************/

void InitTIM10 (void){
 8001610:	b480      	push	{r7}
 8001612:	af00      	add	r7, sp, #0

	RCC->APB2ENR |= RCC_APB2ENR_TIM10EN;
 8001614:	4b14      	ldr	r3, [pc, #80]	; (8001668 <InitTIM10+0x58>)
 8001616:	6c5b      	ldr	r3, [r3, #68]	; 0x44
 8001618:	4a13      	ldr	r2, [pc, #76]	; (8001668 <InitTIM10+0x58>)
 800161a:	f443 3300 	orr.w	r3, r3, #131072	; 0x20000
 800161e:	6453      	str	r3, [r2, #68]	; 0x44

	TIM10->PSC = 96 - 1;
 8001620:	4b12      	ldr	r3, [pc, #72]	; (800166c <InitTIM10+0x5c>)
 8001622:	225f      	movs	r2, #95	; 0x5f
 8001624:	629a      	str	r2, [r3, #40]	; 0x28

	TIM10->ARR = 500;
 8001626:	4b11      	ldr	r3, [pc, #68]	; (800166c <InitTIM10+0x5c>)
 8001628:	f44f 72fa 	mov.w	r2, #500	; 0x1f4
 800162c:	62da      	str	r2, [r3, #44]	; 0x2c

	TIM10->DIER |= TIM_DIER_UIE;
 800162e:	4b0f      	ldr	r3, [pc, #60]	; (800166c <InitTIM10+0x5c>)
 8001630:	68db      	ldr	r3, [r3, #12]
 8001632:	4a0e      	ldr	r2, [pc, #56]	; (800166c <InitTIM10+0x5c>)
 8001634:	f043 0301 	orr.w	r3, r3, #1
 8001638:	60d3      	str	r3, [r2, #12]

	MRTUcount = 0;
 800163a:	4b0d      	ldr	r3, [pc, #52]	; (8001670 <InitTIM10+0x60>)
 800163c:	2200      	movs	r2, #0
 800163e:	801a      	strh	r2, [r3, #0]
	ReceptionStatus = ReceptionStopped;
 8001640:	4b0c      	ldr	r3, [pc, #48]	; (8001674 <InitTIM10+0x64>)
 8001642:	2232      	movs	r2, #50	; 0x32
 8001644:	801a      	strh	r2, [r3, #0]

	TIM10->CR1 |= TIM_CR1_CEN;
 8001646:	4b09      	ldr	r3, [pc, #36]	; (800166c <InitTIM10+0x5c>)
 8001648:	681b      	ldr	r3, [r3, #0]
 800164a:	4a08      	ldr	r2, [pc, #32]	; (800166c <InitTIM10+0x5c>)
 800164c:	f043 0301 	orr.w	r3, r3, #1
 8001650:	6013      	str	r3, [r2, #0]

	TIM10->EGR |= TIM_EGR_UG;
 8001652:	4b06      	ldr	r3, [pc, #24]	; (800166c <InitTIM10+0x5c>)
 8001654:	695b      	ldr	r3, [r3, #20]
 8001656:	4a05      	ldr	r2, [pc, #20]	; (800166c <InitTIM10+0x5c>)
 8001658:	f043 0301 	orr.w	r3, r3, #1
 800165c:	6153      	str	r3, [r2, #20]

}
 800165e:	bf00      	nop
 8001660:	46bd      	mov	sp, r7
 8001662:	bc80      	pop	{r7}
 8001664:	4770      	bx	lr
 8001666:	bf00      	nop
 8001668:	40023800 	.word	0x40023800
 800166c:	40014400 	.word	0x40014400
 8001670:	200002c4 	.word	0x200002c4
 8001674:	200002dc 	.word	0x200002dc

08001678 <TIM1_UP_TIM10_IRQHandler>:

void TIM1_UP_TIM10_IRQHandler (void){
 8001678:	b580      	push	{r7, lr}
 800167a:	b082      	sub	sp, #8
 800167c:	af00      	add	r7, sp, #0

		for (uint8_t i = 0; i <= MaxGTimers; i++){
 800167e:	2300      	movs	r3, #0
 8001680:	71fb      	strb	r3, [r7, #7]
 8001682:	e00f      	b.n	80016a4 <TIM1_UP_TIM10_IRQHandler+0x2c>

				if (GTimerState[i] == TimerRunning){
 8001684:	79fb      	ldrb	r3, [r7, #7]
 8001686:	4a18      	ldr	r2, [pc, #96]	; (80016e8 <TIM1_UP_TIM10_IRQHandler+0x70>)
 8001688:	5cd3      	ldrb	r3, [r2, r3]
 800168a:	2b01      	cmp	r3, #1
 800168c:	d107      	bne.n	800169e <TIM1_UP_TIM10_IRQHandler+0x26>

					GTimerVal[i]++;
 800168e:	79fb      	ldrb	r3, [r7, #7]
 8001690:	4a16      	ldr	r2, [pc, #88]	; (80016ec <TIM1_UP_TIM10_IRQHandler+0x74>)
 8001692:	f852 2023 	ldr.w	r2, [r2, r3, lsl #2]
 8001696:	3201      	adds	r2, #1
 8001698:	4914      	ldr	r1, [pc, #80]	; (80016ec <TIM1_UP_TIM10_IRQHandler+0x74>)
 800169a:	f841 2023 	str.w	r2, [r1, r3, lsl #2]
		for (uint8_t i = 0; i <= MaxGTimers; i++){
 800169e:	79fb      	ldrb	r3, [r7, #7]
 80016a0:	3301      	adds	r3, #1
 80016a2:	71fb      	strb	r3, [r7, #7]
 80016a4:	79fb      	ldrb	r3, [r7, #7]
 80016a6:	2b04      	cmp	r3, #4
 80016a8:	d9ec      	bls.n	8001684 <TIM1_UP_TIM10_IRQHandler+0xc>
				}
			}

	if (ReceptionStatus == ReceptionEnabled){
 80016aa:	4b11      	ldr	r3, [pc, #68]	; (80016f0 <TIM1_UP_TIM10_IRQHandler+0x78>)
 80016ac:	881b      	ldrh	r3, [r3, #0]
 80016ae:	2b64      	cmp	r3, #100	; 0x64
 80016b0:	d10f      	bne.n	80016d2 <TIM1_UP_TIM10_IRQHandler+0x5a>

		MRTUcount++;
 80016b2:	4b10      	ldr	r3, [pc, #64]	; (80016f4 <TIM1_UP_TIM10_IRQHandler+0x7c>)
 80016b4:	881b      	ldrh	r3, [r3, #0]
 80016b6:	3301      	adds	r3, #1
 80016b8:	b29a      	uxth	r2, r3
 80016ba:	4b0e      	ldr	r3, [pc, #56]	; (80016f4 <TIM1_UP_TIM10_IRQHandler+0x7c>)
 80016bc:	801a      	strh	r2, [r3, #0]

		if (MRTUcount >= 5){
 80016be:	4b0d      	ldr	r3, [pc, #52]	; (80016f4 <TIM1_UP_TIM10_IRQHandler+0x7c>)
 80016c0:	881b      	ldrh	r3, [r3, #0]
 80016c2:	2b04      	cmp	r3, #4
 80016c4:	d905      	bls.n	80016d2 <TIM1_UP_TIM10_IRQHandler+0x5a>
			SendMessage(ModbusRTUTimeOut);
 80016c6:	2017      	movs	r0, #23
 80016c8:	f7ff f9c6 	bl	8000a58 <SendMessage>
			ReceptionStatus = ReceptionStopped;
 80016cc:	4b08      	ldr	r3, [pc, #32]	; (80016f0 <TIM1_UP_TIM10_IRQHandler+0x78>)
 80016ce:	2232      	movs	r2, #50	; 0x32
 80016d0:	801a      	strh	r2, [r3, #0]
		}

	}

	TIM10->SR &= ~TIM_SR_UIF;
 80016d2:	4b09      	ldr	r3, [pc, #36]	; (80016f8 <TIM1_UP_TIM10_IRQHandler+0x80>)
 80016d4:	691b      	ldr	r3, [r3, #16]
 80016d6:	4a08      	ldr	r2, [pc, #32]	; (80016f8 <TIM1_UP_TIM10_IRQHandler+0x80>)
 80016d8:	f023 0301 	bic.w	r3, r3, #1
 80016dc:	6113      	str	r3, [r2, #16]

}
 80016de:	bf00      	nop
 80016e0:	3708      	adds	r7, #8
 80016e2:	46bd      	mov	sp, r7
 80016e4:	bd80      	pop	{r7, pc}
 80016e6:	bf00      	nop
 80016e8:	200002d8 	.word	0x200002d8
 80016ec:	200002c8 	.word	0x200002c8
 80016f0:	200002dc 	.word	0x200002dc
 80016f4:	200002c4 	.word	0x200002c4
 80016f8:	40014400 	.word	0x40014400

080016fc <InitGTimer>:

/*************************	 Функции глобальных таймеров	*************************/

void InitGTimer(void){
 80016fc:	b480      	push	{r7}
 80016fe:	b083      	sub	sp, #12
 8001700:	af00      	add	r7, sp, #0

	for (uint8_t i = 0; i < MaxGTimers; i++){
 8001702:	2300      	movs	r3, #0
 8001704:	71fb      	strb	r3, [r7, #7]
 8001706:	e006      	b.n	8001716 <InitGTimer+0x1a>
		GTimerState[i] = TimerStopped;
 8001708:	79fb      	ldrb	r3, [r7, #7]
 800170a:	4a07      	ldr	r2, [pc, #28]	; (8001728 <InitGTimer+0x2c>)
 800170c:	2100      	movs	r1, #0
 800170e:	54d1      	strb	r1, [r2, r3]
	for (uint8_t i = 0; i < MaxGTimers; i++){
 8001710:	79fb      	ldrb	r3, [r7, #7]
 8001712:	3301      	adds	r3, #1
 8001714:	71fb      	strb	r3, [r7, #7]
 8001716:	79fb      	ldrb	r3, [r7, #7]
 8001718:	2b03      	cmp	r3, #3
 800171a:	d9f5      	bls.n	8001708 <InitGTimer+0xc>
	}

}
 800171c:	bf00      	nop
 800171e:	bf00      	nop
 8001720:	370c      	adds	r7, #12
 8001722:	46bd      	mov	sp, r7
 8001724:	bc80      	pop	{r7}
 8001726:	4770      	bx	lr
 8001728:	200002d8 	.word	0x200002d8

0800172c <StartGTimer>:

void StartGTimer(uint8_t GTimerID){
 800172c:	b480      	push	{r7}
 800172e:	b083      	sub	sp, #12
 8001730:	af00      	add	r7, sp, #0
 8001732:	4603      	mov	r3, r0
 8001734:	71fb      	strb	r3, [r7, #7]

	if (GTimerState[GTimerID] == TimerStopped){
 8001736:	79fb      	ldrb	r3, [r7, #7]
 8001738:	4a08      	ldr	r2, [pc, #32]	; (800175c <StartGTimer+0x30>)
 800173a:	5cd3      	ldrb	r3, [r2, r3]
 800173c:	2b00      	cmp	r3, #0
 800173e:	d108      	bne.n	8001752 <StartGTimer+0x26>

		GTimerVal[GTimerID] = 0;
 8001740:	79fb      	ldrb	r3, [r7, #7]
 8001742:	4a07      	ldr	r2, [pc, #28]	; (8001760 <StartGTimer+0x34>)
 8001744:	2100      	movs	r1, #0
 8001746:	f842 1023 	str.w	r1, [r2, r3, lsl #2]
		GTimerState[GTimerID] = TimerRunning;
 800174a:	79fb      	ldrb	r3, [r7, #7]
 800174c:	4a03      	ldr	r2, [pc, #12]	; (800175c <StartGTimer+0x30>)
 800174e:	2101      	movs	r1, #1
 8001750:	54d1      	strb	r1, [r2, r3]
	}

}
 8001752:	bf00      	nop
 8001754:	370c      	adds	r7, #12
 8001756:	46bd      	mov	sp, r7
 8001758:	bc80      	pop	{r7}
 800175a:	4770      	bx	lr
 800175c:	200002d8 	.word	0x200002d8
 8001760:	200002c8 	.word	0x200002c8

08001764 <StopGTimer>:

void StopGTimer(uint8_t GTimerID){
 8001764:	b480      	push	{r7}
 8001766:	b083      	sub	sp, #12
 8001768:	af00      	add	r7, sp, #0
 800176a:	4603      	mov	r3, r0
 800176c:	71fb      	strb	r3, [r7, #7]

	GTimerState[GTimerID] = TimerStopped;
 800176e:	79fb      	ldrb	r3, [r7, #7]
 8001770:	4a03      	ldr	r2, [pc, #12]	; (8001780 <StopGTimer+0x1c>)
 8001772:	2100      	movs	r1, #0
 8001774:	54d1      	strb	r1, [r2, r3]
}
 8001776:	bf00      	nop
 8001778:	370c      	adds	r7, #12
 800177a:	46bd      	mov	sp, r7
 800177c:	bc80      	pop	{r7}
 800177e:	4770      	bx	lr
 8001780:	200002d8 	.word	0x200002d8

08001784 <GetGTimerVal>:
		GTimerState[GTimerID] = TimerRunning;
	}

}

uint32_t GetGTimerVal(uint8_t GTimerID){
 8001784:	b480      	push	{r7}
 8001786:	b083      	sub	sp, #12
 8001788:	af00      	add	r7, sp, #0
 800178a:	4603      	mov	r3, r0
 800178c:	71fb      	strb	r3, [r7, #7]

	return GTimerVal[GTimerID];
 800178e:	79fb      	ldrb	r3, [r7, #7]
 8001790:	4a03      	ldr	r2, [pc, #12]	; (80017a0 <GetGTimerVal+0x1c>)
 8001792:	f852 3023 	ldr.w	r3, [r2, r3, lsl #2]

}
 8001796:	4618      	mov	r0, r3
 8001798:	370c      	adds	r7, #12
 800179a:	46bd      	mov	sp, r7
 800179c:	bc80      	pop	{r7}
 800179e:	4770      	bx	lr
 80017a0:	200002c8 	.word	0x200002c8

080017a4 <Reset_Handler>:

    .section  .text.Reset_Handler
  .weak  Reset_Handler
  .type  Reset_Handler, %function
Reset_Handler:  
  ldr   sp, =_estack    		 /* set stack pointer */
 80017a4:	f8df d034 	ldr.w	sp, [pc, #52]	; 80017dc <LoopFillZerobss+0x14>

/* Copy the data segment initializers from flash to SRAM */  
  movs  r1, #0
 80017a8:	2100      	movs	r1, #0
  b  LoopCopyDataInit
 80017aa:	e003      	b.n	80017b4 <LoopCopyDataInit>

080017ac <CopyDataInit>:

CopyDataInit:
  ldr  r3, =_sidata
 80017ac:	4b0c      	ldr	r3, [pc, #48]	; (80017e0 <LoopFillZerobss+0x18>)
  ldr  r3, [r3, r1]
 80017ae:	585b      	ldr	r3, [r3, r1]
  str  r3, [r0, r1]
 80017b0:	5043      	str	r3, [r0, r1]
  adds  r1, r1, #4
 80017b2:	3104      	adds	r1, #4

080017b4 <LoopCopyDataInit>:
    
LoopCopyDataInit:
  ldr  r0, =_sdata
 80017b4:	480b      	ldr	r0, [pc, #44]	; (80017e4 <LoopFillZerobss+0x1c>)
  ldr  r3, =_edata
 80017b6:	4b0c      	ldr	r3, [pc, #48]	; (80017e8 <LoopFillZerobss+0x20>)
  adds  r2, r0, r1
 80017b8:	1842      	adds	r2, r0, r1
  cmp  r2, r3
 80017ba:	429a      	cmp	r2, r3
  bcc  CopyDataInit
 80017bc:	d3f6      	bcc.n	80017ac <CopyDataInit>
  ldr  r2, =_sbss
 80017be:	4a0b      	ldr	r2, [pc, #44]	; (80017ec <LoopFillZerobss+0x24>)
  b  LoopFillZerobss
 80017c0:	e002      	b.n	80017c8 <LoopFillZerobss>

080017c2 <FillZerobss>:
/* Zero fill the bss segment. */  
FillZerobss:
  movs  r3, #0
 80017c2:	2300      	movs	r3, #0
  str  r3, [r2], #4
 80017c4:	f842 3b04 	str.w	r3, [r2], #4

080017c8 <LoopFillZerobss>:
    
LoopFillZerobss:
  ldr  r3, = _ebss
 80017c8:	4b09      	ldr	r3, [pc, #36]	; (80017f0 <LoopFillZerobss+0x28>)
  cmp  r2, r3
 80017ca:	429a      	cmp	r2, r3
  bcc  FillZerobss
 80017cc:	d3f9      	bcc.n	80017c2 <FillZerobss>

/* Call the clock system intitialization function.*/
  bl  SystemInit   
 80017ce:	f7fe fd03 	bl	80001d8 <SystemInit>
/* Call static constructors */
    bl __libc_init_array
 80017d2:	f000 f811 	bl	80017f8 <__libc_init_array>
/* Call the application's entry point.*/
  bl  main
 80017d6:	f7ff f8e1 	bl	800099c <main>
  bx  lr    
 80017da:	4770      	bx	lr
  ldr   sp, =_estack    		 /* set stack pointer */
 80017dc:	20020000 	.word	0x20020000
  ldr  r3, =_sidata
 80017e0:	08001a90 	.word	0x08001a90
  ldr  r0, =_sdata
 80017e4:	20000000 	.word	0x20000000
  ldr  r3, =_edata
 80017e8:	20000004 	.word	0x20000004
  ldr  r2, =_sbss
 80017ec:	20000004 	.word	0x20000004
  ldr  r3, = _ebss
 80017f0:	200002e0 	.word	0x200002e0

080017f4 <ADC_IRQHandler>:
 * @retval None       
*/
    .section  .text.Default_Handler,"ax",%progbits
Default_Handler:
Infinite_Loop:
  b  Infinite_Loop
 80017f4:	e7fe      	b.n	80017f4 <ADC_IRQHandler>
	...

080017f8 <__libc_init_array>:
 80017f8:	b570      	push	{r4, r5, r6, lr}
 80017fa:	4d0d      	ldr	r5, [pc, #52]	; (8001830 <__libc_init_array+0x38>)
 80017fc:	4c0d      	ldr	r4, [pc, #52]	; (8001834 <__libc_init_array+0x3c>)
 80017fe:	1b64      	subs	r4, r4, r5
 8001800:	10a4      	asrs	r4, r4, #2
 8001802:	2600      	movs	r6, #0
 8001804:	42a6      	cmp	r6, r4
 8001806:	d109      	bne.n	800181c <__libc_init_array+0x24>
 8001808:	4d0b      	ldr	r5, [pc, #44]	; (8001838 <__libc_init_array+0x40>)
 800180a:	4c0c      	ldr	r4, [pc, #48]	; (800183c <__libc_init_array+0x44>)
 800180c:	f000 f818 	bl	8001840 <_init>
 8001810:	1b64      	subs	r4, r4, r5
 8001812:	10a4      	asrs	r4, r4, #2
 8001814:	2600      	movs	r6, #0
 8001816:	42a6      	cmp	r6, r4
 8001818:	d105      	bne.n	8001826 <__libc_init_array+0x2e>
 800181a:	bd70      	pop	{r4, r5, r6, pc}
 800181c:	f855 3b04 	ldr.w	r3, [r5], #4
 8001820:	4798      	blx	r3
 8001822:	3601      	adds	r6, #1
 8001824:	e7ee      	b.n	8001804 <__libc_init_array+0xc>
 8001826:	f855 3b04 	ldr.w	r3, [r5], #4
 800182a:	4798      	blx	r3
 800182c:	3601      	adds	r6, #1
 800182e:	e7f2      	b.n	8001816 <__libc_init_array+0x1e>
 8001830:	08001a88 	.word	0x08001a88
 8001834:	08001a88 	.word	0x08001a88
 8001838:	08001a88 	.word	0x08001a88
 800183c:	08001a8c 	.word	0x08001a8c

08001840 <_init>:
 8001840:	b5f8      	push	{r3, r4, r5, r6, r7, lr}
 8001842:	bf00      	nop
 8001844:	bcf8      	pop	{r3, r4, r5, r6, r7}
 8001846:	bc08      	pop	{r3}
 8001848:	469e      	mov	lr, r3
 800184a:	4770      	bx	lr

0800184c <_fini>:
 800184c:	b5f8      	push	{r3, r4, r5, r6, r7, lr}
 800184e:	bf00      	nop
 8001850:	bcf8      	pop	{r3, r4, r5, r6, r7}
 8001852:	bc08      	pop	{r3}
 8001854:	469e      	mov	lr, r3
 8001856:	4770      	bx	lr
